
obj/net/ns:     file format elf32-i386


Disassembly of section .text:

00800020 <_start>:
// starts us(the user environment) running when we are initially loaded into a new environment.
.text
.globl _start
_start:
	// See if we were started with arguments on the stack
	cmpl $USTACKTOP, %esp
  800020:	81 fc 00 e0 bf ee    	cmp    $0xeebfe000,%esp
	jne args_exist
  800026:	75 04                	jne    80002c <args_exist>

	// If not, push dummy argc/argv arguments.
	// This happens when we are loaded by the kernel,
	// because the kernel does not know about passing arguments.
	pushl $0
  800028:	6a 00                	push   $0x0
	pushl $0
  80002a:	6a 00                	push   $0x0

0080002c <args_exist>:

args_exist:
	call libmain
  80002c:	e8 9e e8 00 00       	call   80e8cf <libmain>
1:	jmp 1b
  800031:	eb fe                	jmp    800031 <args_exist+0x5>

00800033 <tcpip_init_done>:
		panic("cannot create timer thread: %s", e2s(r));
}

static void
tcpip_init_done(void *arg)
{
  800033:	f3 0f 1e fb          	endbr32 
  800037:	55                   	push   %ebp
  800038:	89 e5                	mov    %esp,%ebp
  80003a:	83 ec 14             	sub    $0x14,%esp
  80003d:	8b 45 08             	mov    0x8(%ebp),%eax
	uint32_t *done = arg;
	*done = 1;
  800040:	c7 00 01 00 00 00    	movl   $0x1,(%eax)
	thread_wakeup(done);
  800046:	50                   	push   %eax
  800047:	e8 5f a8 00 00       	call   80a8ab <thread_wakeup>
}
  80004c:	83 c4 10             	add    $0x10,%esp
  80004f:	c9                   	leave  
  800050:	c3                   	ret    

00800051 <start_timer>:
{
  800051:	55                   	push   %ebp
  800052:	89 e5                	mov    %esp,%ebp
  800054:	53                   	push   %ebx
  800055:	83 ec 04             	sub    $0x4,%esp
	t->msec = msec;
  800058:	8b 5d 08             	mov    0x8(%ebp),%ebx
  80005b:	89 18                	mov    %ebx,(%eax)
	t->func = func;
  80005d:	89 50 04             	mov    %edx,0x4(%eax)
	t->name = name;
  800060:	89 48 08             	mov    %ecx,0x8(%eax)
	int r = thread_create(0, name, &net_timer, (uint32_t)t);
  800063:	50                   	push   %eax
  800064:	68 98 00 80 00       	push   $0x800098
  800069:	51                   	push   %ecx
  80006a:	6a 00                	push   $0x0
  80006c:	e8 b1 a8 00 00       	call   80a922 <thread_create>
	if (r < 0)
  800071:	83 c4 10             	add    $0x10,%esp
  800074:	85 c0                	test   %eax,%eax
  800076:	78 05                	js     80007d <start_timer+0x2c>
}
  800078:	8b 5d fc             	mov    -0x4(%ebp),%ebx
  80007b:	c9                   	leave  
  80007c:	c3                   	ret    
		panic("cannot create timer thread: %s", e2s(r));
  80007d:	83 ec 0c             	sub    $0xc,%esp
  800080:	50                   	push   %eax
  800081:	e8 e7 ab 00 00       	call   80ac6d <e2s>
  800086:	50                   	push   %eax
  800087:	68 a0 11 81 00       	push   $0x8111a0
  80008c:	6a 7a                	push   $0x7a
  80008e:	68 d5 12 81 00       	push   $0x8112d5
  800093:	e8 9f e8 00 00       	call   80e937 <_panic>

00800098 <net_timer>:
{
  800098:	f3 0f 1e fb          	endbr32 
  80009c:	55                   	push   %ebp
  80009d:	89 e5                	mov    %esp,%ebp
  80009f:	56                   	push   %esi
  8000a0:	53                   	push   %ebx
	struct timer_thread *t = (struct timer_thread *) arg;
  8000a1:	8b 75 08             	mov    0x8(%ebp),%esi
		uint32_t cur = sys_time_msec();
  8000a4:	e8 12 f5 00 00       	call   80f5bb <sys_time_msec>
  8000a9:	89 c3                	mov    %eax,%ebx
		lwip_core_lock();
  8000ab:	e8 c2 a7 00 00       	call   80a872 <lwip_core_lock>
		t->func();
  8000b0:	ff 56 04             	call   *0x4(%esi)
		lwip_core_unlock();
  8000b3:	e8 bf a7 00 00       	call   80a877 <lwip_core_unlock>
		thread_wait(0, 0, cur + t->msec);
  8000b8:	83 ec 04             	sub    $0x4,%esp
  8000bb:	03 1e                	add    (%esi),%ebx
  8000bd:	53                   	push   %ebx
  8000be:	6a 00                	push   $0x0
  8000c0:	6a 00                	push   $0x0
  8000c2:	e8 0f aa 00 00       	call   80aad6 <thread_wait>
  8000c7:	83 c4 10             	add    $0x10,%esp
  8000ca:	eb d8                	jmp    8000a4 <net_timer+0xc>

008000cc <serve_thread>:
	uint32_t whom;
	union Nsipc *req;
};

static void
serve_thread(uint32_t a) {
  8000cc:	f3 0f 1e fb          	endbr32 
  8000d0:	55                   	push   %ebp
  8000d1:	89 e5                	mov    %esp,%ebp
  8000d3:	57                   	push   %edi
  8000d4:	56                   	push   %esi
  8000d5:	53                   	push   %ebx
  8000d6:	83 ec 7c             	sub    $0x7c,%esp
  8000d9:	8b 5d 08             	mov    0x8(%ebp),%ebx
	struct st_args *args = (struct st_args *)a;
	union Nsipc *req = args->req;
  8000dc:	8b 7b 08             	mov    0x8(%ebx),%edi
  8000df:	83 3b 0a             	cmpl   $0xa,(%ebx)
  8000e2:	0f 87 50 01 00 00    	ja     800238 <serve_thread+0x16c>
  8000e8:	8b 03                	mov    (%ebx),%eax
  8000ea:	3e ff 24 85 80 13 81 	notrack jmp *0x811380(,%eax,4)
  8000f1:	00 

	switch (args->reqno) {
	case NSREQ_ACCEPT:
	{
		struct Nsret_accept ret;
		ret.ret_addrlen = req->accept.req_addrlen;
  8000f2:	8b 47 04             	mov    0x4(%edi),%eax
  8000f5:	89 45 94             	mov    %eax,-0x6c(%ebp)
		r = lwip_accept(req->accept.req_s, &ret.ret_addr,
  8000f8:	83 ec 04             	sub    $0x4,%esp
  8000fb:	8d 45 94             	lea    -0x6c(%ebp),%eax
  8000fe:	50                   	push   %eax
  8000ff:	8d 45 84             	lea    -0x7c(%ebp),%eax
  800102:	50                   	push   %eax
  800103:	ff 37                	pushl  (%edi)
  800105:	e8 22 0e 00 00       	call   800f2c <lwip_accept>
  80010a:	89 c6                	mov    %eax,%esi
				&ret.ret_addrlen);
		memmove(req, &ret, sizeof ret);
  80010c:	83 c4 0c             	add    $0xc,%esp
  80010f:	6a 14                	push   $0x14
  800111:	8d 45 84             	lea    -0x7c(%ebp),%eax
  800114:	50                   	push   %eax
  800115:	57                   	push   %edi
  800116:	e8 0b f1 00 00       	call   80f226 <memmove>
  80011b:	83 c4 10             	add    $0x10,%esp
		cprintf("Invalid request code %d from %08x\n", args->whom, args->req);
		r = -E_INVAL;
		break;
	}

	if (r == -1) {
  80011e:	83 fe ff             	cmp    $0xffffffff,%esi
  800121:	0f 84 2f 01 00 00    	je     800256 <serve_thread+0x18a>
		char buf[100];
		snprintf(buf, sizeof buf, "ns req type %d", args->reqno);
		perror(buf);
	}

	if (args->reqno != NSREQ_INPUT)
  800127:	83 3b 0a             	cmpl   $0xa,(%ebx)
  80012a:	0f 85 48 01 00 00    	jne    800278 <serve_thread+0x1ac>
		ipc_send(args->whom, r, 0, 0);

	put_buffer(args->req);
  800130:	8b 53 08             	mov    0x8(%ebx),%edx
	int i = ((uint32_t)va - REQVA) / PGSIZE;
  800133:	8d 82 00 50 01 f0    	lea    -0xffeb000(%edx),%eax
  800139:	c1 e8 0c             	shr    $0xc,%eax
	buse[i] = 0;
  80013c:	c6 80 00 50 81 00 00 	movb   $0x0,0x815000(%eax)
	sys_page_unmap(0, (void*) args->req);
  800143:	83 ec 08             	sub    $0x8,%esp
  800146:	52                   	push   %edx
  800147:	6a 00                	push   $0x0
  800149:	e8 8e f3 00 00       	call   80f4dc <sys_page_unmap>
	free(args);
  80014e:	89 1c 24             	mov    %ebx,(%esp)
  800151:	e8 6e 05 01 00       	call   8106c4 <free>
}
  800156:	83 c4 10             	add    $0x10,%esp
  800159:	8d 65 f4             	lea    -0xc(%ebp),%esp
  80015c:	5b                   	pop    %ebx
  80015d:	5e                   	pop    %esi
  80015e:	5f                   	pop    %edi
  80015f:	5d                   	pop    %ebp
  800160:	c3                   	ret    
		r = lwip_bind(req->bind.req_s, &req->bind.req_name,
  800161:	83 ec 04             	sub    $0x4,%esp
  800164:	ff 77 14             	pushl  0x14(%edi)
  800167:	8d 47 04             	lea    0x4(%edi),%eax
  80016a:	50                   	push   %eax
  80016b:	ff 37                	pushl  (%edi)
  80016d:	e8 70 0f 00 00       	call   8010e2 <lwip_bind>
  800172:	89 c6                	mov    %eax,%esi
		break;
  800174:	83 c4 10             	add    $0x10,%esp
  800177:	eb a5                	jmp    80011e <serve_thread+0x52>
		r = lwip_shutdown(req->shutdown.req_s, req->shutdown.req_how);
  800179:	83 ec 08             	sub    $0x8,%esp
  80017c:	ff 77 04             	pushl  0x4(%edi)
  80017f:	ff 37                	pushl  (%edi)
  800181:	e8 e7 1a 00 00       	call   801c6d <lwip_shutdown>
  800186:	89 c6                	mov    %eax,%esi
		break;
  800188:	83 c4 10             	add    $0x10,%esp
  80018b:	eb 91                	jmp    80011e <serve_thread+0x52>
		r = lwip_close(req->close.req_s);
  80018d:	83 ec 0c             	sub    $0xc,%esp
  800190:	ff 37                	pushl  (%edi)
  800192:	e8 05 10 00 00       	call   80119c <lwip_close>
  800197:	89 c6                	mov    %eax,%esi
		break;
  800199:	83 c4 10             	add    $0x10,%esp
  80019c:	eb 80                	jmp    80011e <serve_thread+0x52>
		r = lwip_connect(req->connect.req_s, &req->connect.req_name,
  80019e:	83 ec 04             	sub    $0x4,%esp
  8001a1:	ff 77 14             	pushl  0x14(%edi)
  8001a4:	8d 47 04             	lea    0x4(%edi),%eax
  8001a7:	50                   	push   %eax
  8001a8:	ff 37                	pushl  (%edi)
  8001aa:	e8 7a 10 00 00       	call   801229 <lwip_connect>
  8001af:	89 c6                	mov    %eax,%esi
		break;
  8001b1:	83 c4 10             	add    $0x10,%esp
  8001b4:	e9 65 ff ff ff       	jmp    80011e <serve_thread+0x52>
		r = lwip_listen(req->listen.req_s, req->listen.req_backlog);
  8001b9:	83 ec 08             	sub    $0x8,%esp
  8001bc:	ff 77 04             	pushl  0x4(%edi)
  8001bf:	ff 37                	pushl  (%edi)
  8001c1:	e8 1d 11 00 00       	call   8012e3 <lwip_listen>
  8001c6:	89 c6                	mov    %eax,%esi
		break;
  8001c8:	83 c4 10             	add    $0x10,%esp
  8001cb:	e9 4e ff ff ff       	jmp    80011e <serve_thread+0x52>
		r = lwip_recv(req->recv.req_s, req->recvRet.ret_buf,
  8001d0:	ff 77 08             	pushl  0x8(%edi)
  8001d3:	ff 77 04             	pushl  0x4(%edi)
  8001d6:	57                   	push   %edi
  8001d7:	ff 37                	pushl  (%edi)
  8001d9:	e8 fc 13 00 00       	call   8015da <lwip_recv>
  8001de:	89 c6                	mov    %eax,%esi
		break;
  8001e0:	83 c4 10             	add    $0x10,%esp
  8001e3:	e9 36 ff ff ff       	jmp    80011e <serve_thread+0x52>
		r = lwip_send(req->send.req_s, &req->send.req_buf,
  8001e8:	ff 77 08             	pushl  0x8(%edi)
  8001eb:	ff 77 04             	pushl  0x4(%edi)
  8001ee:	8d 47 0c             	lea    0xc(%edi),%eax
  8001f1:	50                   	push   %eax
  8001f2:	ff 37                	pushl  (%edi)
  8001f4:	e8 7b 15 00 00       	call   801774 <lwip_send>
  8001f9:	89 c6                	mov    %eax,%esi
		break;
  8001fb:	83 c4 10             	add    $0x10,%esp
  8001fe:	e9 1b ff ff ff       	jmp    80011e <serve_thread+0x52>
		r = lwip_socket(req->socket.req_domain, req->socket.req_type,
  800203:	83 ec 04             	sub    $0x4,%esp
  800206:	ff 77 08             	pushl  0x8(%edi)
  800209:	ff 77 04             	pushl  0x4(%edi)
  80020c:	ff 37                	pushl  (%edi)
  80020e:	e8 f6 15 00 00       	call   801809 <lwip_socket>
  800213:	89 c6                	mov    %eax,%esi
		break;
  800215:	83 c4 10             	add    $0x10,%esp
  800218:	e9 01 ff ff ff       	jmp    80011e <serve_thread+0x52>
		jif_input(&nif, (void *)&req->pkt);
  80021d:	83 ec 08             	sub    $0x8,%esp
  800220:	57                   	push   %edi
  800221:	68 00 b2 b3 00       	push   $0xb3b200
  800226:	e8 3d ab 00 00       	call   80ad68 <jif_input>
  80022b:	83 c4 10             	add    $0x10,%esp
		r = 0;
  80022e:	be 00 00 00 00       	mov    $0x0,%esi
  800233:	e9 ef fe ff ff       	jmp    800127 <serve_thread+0x5b>
		cprintf("Invalid request code %d from %08x\n", args->whom, args->req);
  800238:	83 ec 04             	sub    $0x4,%esp
  80023b:	57                   	push   %edi
  80023c:	ff 73 04             	pushl  0x4(%ebx)
  80023f:	68 c0 11 81 00       	push   $0x8111c0
  800244:	e8 d5 e7 00 00       	call   80ea1e <cprintf>
  800249:	83 c4 10             	add    $0x10,%esp
		r = -E_INVAL;
  80024c:	be fd ff ff ff       	mov    $0xfffffffd,%esi
  800251:	e9 d1 fe ff ff       	jmp    800127 <serve_thread+0x5b>
		snprintf(buf, sizeof buf, "ns req type %d", args->reqno);
  800256:	ff 33                	pushl  (%ebx)
  800258:	68 e0 12 81 00       	push   $0x8112e0
  80025d:	6a 64                	push   $0x64
  80025f:	8d 7d 84             	lea    -0x7c(%ebp),%edi
  800262:	57                   	push   %edi
  800263:	e8 5f ed 00 00       	call   80efc7 <snprintf>
		perror(buf);
  800268:	89 3c 24             	mov    %edi,(%esp)
  80026b:	e8 d5 a9 00 00       	call   80ac45 <perror>
  800270:	83 c4 10             	add    $0x10,%esp
  800273:	e9 af fe ff ff       	jmp    800127 <serve_thread+0x5b>
		ipc_send(args->whom, r, 0, 0);
  800278:	6a 00                	push   $0x0
  80027a:	6a 00                	push   $0x0
  80027c:	56                   	push   %esi
  80027d:	ff 73 04             	pushl  0x4(%ebx)
  800280:	e8 9d f6 00 00       	call   80f922 <ipc_send>
  800285:	83 c4 10             	add    $0x10,%esp
  800288:	e9 a3 fe ff ff       	jmp    800130 <serve_thread+0x64>

0080028d <serve_init>:
{
  80028d:	f3 0f 1e fb          	endbr32 
  800291:	55                   	push   %ebp
  800292:	89 e5                	mov    %esp,%ebp
  800294:	56                   	push   %esi
  800295:	53                   	push   %ebx
  800296:	83 ec 10             	sub    $0x10,%esp
  800299:	8b 75 08             	mov    0x8(%ebp),%esi
	lwip_core_lock();
  80029c:	e8 d1 a5 00 00       	call   80a872 <lwip_core_lock>
	uint32_t done = 0;
  8002a1:	c7 45 f4 00 00 00 00 	movl   $0x0,-0xc(%ebp)
	tcpip_init(&tcpip_init_done, &done);
  8002a8:	83 ec 08             	sub    $0x8,%esp
  8002ab:	8d 5d f4             	lea    -0xc(%ebp),%ebx
  8002ae:	53                   	push   %ebx
  8002af:	68 33 00 80 00       	push   $0x800033
  8002b4:	e8 91 22 00 00       	call   80254a <tcpip_init>
	lwip_core_unlock();
  8002b9:	e8 b9 a5 00 00       	call   80a877 <lwip_core_unlock>
	thread_wait(&done, 0, (uint32_t)~0);
  8002be:	83 c4 0c             	add    $0xc,%esp
  8002c1:	6a ff                	push   $0xffffffff
  8002c3:	6a 00                	push   $0x0
  8002c5:	53                   	push   %ebx
  8002c6:	e8 0b a8 00 00       	call   80aad6 <thread_wait>
	lwip_core_lock();
  8002cb:	e8 a2 a5 00 00       	call   80a872 <lwip_core_lock>
	ipaddr.addr  = init_addr;
  8002d0:	89 75 e8             	mov    %esi,-0x18(%ebp)
	netmask.addr = init_mask;
  8002d3:	8b 45 0c             	mov    0xc(%ebp),%eax
  8002d6:	89 45 ec             	mov    %eax,-0x14(%ebp)
	gateway.addr = init_gw;
  8002d9:	8b 45 10             	mov    0x10(%ebp),%eax
  8002dc:	89 45 f0             	mov    %eax,-0x10(%ebp)
	if (0 == netif_add(nif, &ipaddr, &netmask, &gateway,
  8002df:	83 c4 0c             	add    $0xc,%esp
  8002e2:	68 7f 67 80 00       	push   $0x80677f
  8002e7:	68 57 ae 80 00       	push   $0x80ae57
  8002ec:	68 14 50 81 00       	push   $0x815014
  8002f1:	8d 45 f0             	lea    -0x10(%ebp),%eax
  8002f4:	50                   	push   %eax
  8002f5:	8d 45 ec             	lea    -0x14(%ebp),%eax
  8002f8:	50                   	push   %eax
  8002f9:	8d 45 e8             	lea    -0x18(%ebp),%eax
  8002fc:	50                   	push   %eax
  8002fd:	68 00 b2 b3 00       	push   $0xb3b200
  800302:	e8 0e 45 00 00       	call   804815 <netif_add>
  800307:	83 c4 20             	add    $0x20,%esp
  80030a:	85 c0                	test   %eax,%eax
  80030c:	0f 84 cc 00 00 00    	je     8003de <serve_init+0x151>
	netif_set_default(nif);
  800312:	83 ec 0c             	sub    $0xc,%esp
  800315:	68 00 b2 b3 00       	push   $0xb3b200
  80031a:	e8 b4 45 00 00       	call   8048d3 <netif_set_default>
	netif_set_up(nif);
  80031f:	c7 04 24 00 b2 b3 00 	movl   $0xb3b200,(%esp)
  800326:	e8 b9 45 00 00       	call   8048e4 <netif_set_up>
	start_timer(&t_arp, &etharp_tmr, "arp timer", ARP_TMR_INTERVAL);
  80032b:	c7 04 24 88 13 00 00 	movl   $0x1388,(%esp)
  800332:	b9 ef 12 81 00       	mov    $0x8112ef,%ecx
  800337:	ba 97 97 80 00       	mov    $0x809797,%edx
  80033c:	b8 34 50 81 00       	mov    $0x815034,%eax
  800341:	e8 0b fd ff ff       	call   800051 <start_timer>
	start_timer(&t_tcpf, &tcp_fasttmr, "tcp f timer", TCP_FAST_INTERVAL);
  800346:	c7 04 24 fa 00 00 00 	movl   $0xfa,(%esp)
  80034d:	b9 f9 12 81 00       	mov    $0x8112f9,%ecx
  800352:	ba f6 58 80 00       	mov    $0x8058f6,%edx
  800357:	b8 28 50 81 00       	mov    $0x815028,%eax
  80035c:	e8 f0 fc ff ff       	call   800051 <start_timer>
	start_timer(&t_tcps, &tcp_slowtmr, "tcp s timer", TCP_SLOW_INTERVAL);
  800361:	c7 04 24 f4 01 00 00 	movl   $0x1f4,(%esp)
  800368:	b9 05 13 81 00       	mov    $0x811305,%ecx
  80036d:	ba cd 5e 80 00       	mov    $0x805ecd,%edx
  800372:	b8 1c 50 81 00       	mov    $0x81501c,%eax
  800377:	e8 d5 fc ff ff       	call   800051 <start_timer>
	cprintf("ns: %02x:%02x:%02x:%02x:%02x:%02x"
  80037c:	89 34 24             	mov    %esi,(%esp)
  80037f:	e8 2b 75 00 00       	call   8078af <inet_ntoa>
  800384:	50                   	push   %eax
  800385:	0f b6 05 2a b2 b3 00 	movzbl 0xb3b22a,%eax
  80038c:	50                   	push   %eax
  80038d:	0f b6 05 29 b2 b3 00 	movzbl 0xb3b229,%eax
  800394:	50                   	push   %eax
  800395:	0f b6 05 28 b2 b3 00 	movzbl 0xb3b228,%eax
  80039c:	50                   	push   %eax
  80039d:	0f b6 05 27 b2 b3 00 	movzbl 0xb3b227,%eax
  8003a4:	50                   	push   %eax
  8003a5:	0f b6 05 26 b2 b3 00 	movzbl 0xb3b226,%eax
  8003ac:	50                   	push   %eax
  8003ad:	0f b6 05 25 b2 b3 00 	movzbl 0xb3b225,%eax
  8003b4:	50                   	push   %eax
  8003b5:	68 04 12 81 00       	push   $0x811204
  8003ba:	e8 5f e6 00 00       	call   80ea1e <cprintf>
	lwip_core_unlock();
  8003bf:	83 c4 30             	add    $0x30,%esp
  8003c2:	e8 b0 a4 00 00       	call   80a877 <lwip_core_unlock>
	cprintf("NS: TCP/IP initialized.\n");
  8003c7:	83 ec 0c             	sub    $0xc,%esp
  8003ca:	68 11 13 81 00       	push   $0x811311
  8003cf:	e8 4a e6 00 00       	call   80ea1e <cprintf>
}
  8003d4:	83 c4 10             	add    $0x10,%esp
  8003d7:	8d 65 f8             	lea    -0x8(%ebp),%esp
  8003da:	5b                   	pop    %ebx
  8003db:	5e                   	pop    %esi
  8003dc:	5d                   	pop    %ebp
  8003dd:	c3                   	ret    
		panic("lwip_init: error in netif_add\n");
  8003de:	83 ec 04             	sub    $0x4,%esp
  8003e1:	68 e4 11 81 00       	push   $0x8111e4
  8003e6:	6a 5c                	push   $0x5c
  8003e8:	68 d5 12 81 00       	push   $0x8112d5
  8003ed:	e8 45 e5 00 00       	call   80e937 <_panic>

008003f2 <serve>:

void
serve(void) {
  8003f2:	f3 0f 1e fb          	endbr32 
  8003f6:	55                   	push   %ebp
  8003f7:	89 e5                	mov    %esp,%ebp
  8003f9:	57                   	push   %edi
  8003fa:	56                   	push   %esi
  8003fb:	53                   	push   %ebx
  8003fc:	83 ec 2c             	sub    $0x2c,%esp
		for (i = 0; thread_wakeups_pending() && i < 32; ++i)
			thread_yield();

		perm = 0;
		va = get_buffer();
		reqno = ipc_recv((int32_t *) &whom, (void *) va, &perm);
  8003ff:	8d 7d e0             	lea    -0x20(%ebp),%edi
  800402:	e9 9d 00 00 00       	jmp    8004a4 <serve+0xb2>
		perm = 0;
  800407:	c7 45 e0 00 00 00 00 	movl   $0x0,-0x20(%ebp)
	for (i = 0; i < QUEUE_SIZE; i++)
  80040e:	b8 00 00 00 00       	mov    $0x0,%eax
		if (!buse[i]) break;
  800413:	80 b8 00 50 81 00 00 	cmpb   $0x0,0x815000(%eax)
  80041a:	74 1c                	je     800438 <serve+0x46>
	for (i = 0; i < QUEUE_SIZE; i++)
  80041c:	83 c0 01             	add    $0x1,%eax
  80041f:	83 f8 14             	cmp    $0x14,%eax
  800422:	75 ef                	jne    800413 <serve+0x21>
		panic("NS: buffer overflow");
  800424:	83 ec 04             	sub    $0x4,%esp
  800427:	68 2a 13 81 00       	push   $0x81132a
  80042c:	6a 3f                	push   $0x3f
  80042e:	68 d5 12 81 00       	push   $0x8112d5
  800433:	e8 ff e4 00 00       	call   80e937 <_panic>
	va = (void *)(REQVA + i * PGSIZE);
  800438:	8d 98 eb ff 00 00    	lea    0xffeb(%eax),%ebx
  80043e:	c1 e3 0c             	shl    $0xc,%ebx
	buse[i] = 1;
  800441:	c6 80 00 50 81 00 01 	movb   $0x1,0x815000(%eax)
		reqno = ipc_recv((int32_t *) &whom, (void *) va, &perm);
  800448:	83 ec 04             	sub    $0x4,%esp
  80044b:	57                   	push   %edi
  80044c:	53                   	push   %ebx
  80044d:	8d 45 e4             	lea    -0x1c(%ebp),%eax
  800450:	50                   	push   %eax
  800451:	e8 5f f4 00 00       	call   80f8b5 <ipc_recv>
  800456:	89 c6                	mov    %eax,%esi
		if (debug) {
			cprintf("ns req %d from %08x\n", reqno, whom);
		}

		// first take care of requests that do not contain an argument page
		if (reqno == NSREQ_TIMER) {
  800458:	83 c4 10             	add    $0x10,%esp
  80045b:	83 f8 0c             	cmp    $0xc,%eax
  80045e:	74 69                	je     8004c9 <serve+0xd7>
			put_buffer(va);
			continue;
		}

		// All remaining requests must contain an argument page
		if (!(perm & PTE_P)) {
  800460:	f6 45 e0 01          	testb  $0x1,-0x20(%ebp)
  800464:	0f 84 bb 00 00 00    	je     800525 <serve+0x133>
			continue; // just leave it hanging...
		}

		// Since some lwIP socket calls will block, create a thread and
		// process the rest of the request in the thread.
		struct st_args *args = malloc(sizeof(struct st_args));
  80046a:	83 ec 0c             	sub    $0xc,%esp
  80046d:	6a 0c                	push   $0xc
  80046f:	e8 00 03 01 00       	call   810774 <malloc>
		if (!args)
  800474:	83 c4 10             	add    $0x10,%esp
  800477:	85 c0                	test   %eax,%eax
  800479:	0f 84 be 00 00 00    	je     80053d <serve+0x14b>
			panic("could not allocate thread args structure");

		args->reqno = reqno;
  80047f:	89 30                	mov    %esi,(%eax)
		args->whom = whom;
  800481:	8b 55 e4             	mov    -0x1c(%ebp),%edx
  800484:	89 50 04             	mov    %edx,0x4(%eax)
		args->req = va;
  800487:	89 58 08             	mov    %ebx,0x8(%eax)

		thread_create(0, "serve_thread", serve_thread, (uint32_t)args);
  80048a:	50                   	push   %eax
  80048b:	68 cc 00 80 00       	push   $0x8000cc
  800490:	68 3e 13 81 00       	push   $0x81133e
  800495:	6a 00                	push   $0x0
  800497:	e8 86 a4 00 00       	call   80a922 <thread_create>
		thread_yield(); // let the thread created run
  80049c:	e8 ae a5 00 00       	call   80aa4f <thread_yield>
  8004a1:	83 c4 10             	add    $0x10,%esp
		for (i = 0; thread_wakeups_pending() && i < 32; ++i)
  8004a4:	bb 00 00 00 00       	mov    $0x0,%ebx
  8004a9:	e8 22 a4 00 00       	call   80a8d0 <thread_wakeups_pending>
  8004ae:	85 c0                	test   %eax,%eax
  8004b0:	0f 84 51 ff ff ff    	je     800407 <serve+0x15>
  8004b6:	83 fb 1f             	cmp    $0x1f,%ebx
  8004b9:	0f 8f 48 ff ff ff    	jg     800407 <serve+0x15>
			thread_yield();
  8004bf:	e8 8b a5 00 00       	call   80aa4f <thread_yield>
		for (i = 0; thread_wakeups_pending() && i < 32; ++i)
  8004c4:	83 c3 01             	add    $0x1,%ebx
  8004c7:	eb e0                	jmp    8004a9 <serve+0xb7>
			process_timer(whom);
  8004c9:	8b 75 e4             	mov    -0x1c(%ebp),%esi
	if (envid != timer_envid) {
  8004cc:	3b 35 18 50 81 00    	cmp    0x815018,%esi
  8004d2:	74 23                	je     8004f7 <serve+0x105>
		cprintf("NS: received timer interrupt from envid %x not timer env\n", envid);
  8004d4:	83 ec 08             	sub    $0x8,%esp
  8004d7:	56                   	push   %esi
  8004d8:	68 40 12 81 00       	push   $0x811240
  8004dd:	e8 3c e5 00 00       	call   80ea1e <cprintf>
		return;
  8004e2:	83 c4 10             	add    $0x10,%esp
	int i = ((uint32_t)va - REQVA) / PGSIZE;
  8004e5:	81 eb 00 b0 fe 0f    	sub    $0xffeb000,%ebx
  8004eb:	c1 eb 0c             	shr    $0xc,%ebx
	buse[i] = 0;
  8004ee:	c6 83 00 50 81 00 00 	movb   $0x0,0x815000(%ebx)
			continue;
  8004f5:	eb ad                	jmp    8004a4 <serve+0xb2>
	start = sys_time_msec();
  8004f7:	e8 bf f0 00 00       	call   80f5bb <sys_time_msec>
  8004fc:	89 45 d4             	mov    %eax,-0x2c(%ebp)
	thread_yield();
  8004ff:	e8 4b a5 00 00       	call   80aa4f <thread_yield>
	now = sys_time_msec();
  800504:	e8 b2 f0 00 00       	call   80f5bb <sys_time_msec>
  800509:	89 c2                	mov    %eax,%edx
	ipc_send(envid, to, 0, 0);
  80050b:	6a 00                	push   $0x0
  80050d:	6a 00                	push   $0x0
	to = TIMER_INTERVAL - (now - start);
  80050f:	8b 45 d4             	mov    -0x2c(%ebp),%eax
  800512:	05 fa 00 00 00       	add    $0xfa,%eax
  800517:	29 d0                	sub    %edx,%eax
	ipc_send(envid, to, 0, 0);
  800519:	50                   	push   %eax
  80051a:	56                   	push   %esi
  80051b:	e8 02 f4 00 00       	call   80f922 <ipc_send>
  800520:	83 c4 10             	add    $0x10,%esp
  800523:	eb c0                	jmp    8004e5 <serve+0xf3>
			cprintf("Invalid request from %08x: no argument page\n", whom);
  800525:	83 ec 08             	sub    $0x8,%esp
  800528:	ff 75 e4             	pushl  -0x1c(%ebp)
  80052b:	68 7c 12 81 00       	push   $0x81127c
  800530:	e8 e9 e4 00 00       	call   80ea1e <cprintf>
			continue; // just leave it hanging...
  800535:	83 c4 10             	add    $0x10,%esp
  800538:	e9 67 ff ff ff       	jmp    8004a4 <serve+0xb2>
			panic("could not allocate thread args structure");
  80053d:	83 ec 04             	sub    $0x4,%esp
  800540:	68 ac 12 81 00       	push   $0x8112ac
  800545:	68 27 01 00 00       	push   $0x127
  80054a:	68 d5 12 81 00       	push   $0x8112d5
  80054f:	e8 e3 e3 00 00       	call   80e937 <_panic>

00800554 <tmain>:
	}
}

static void
tmain(uint32_t arg) {
  800554:	f3 0f 1e fb          	endbr32 
  800558:	55                   	push   %ebp
  800559:	89 e5                	mov    %esp,%ebp
  80055b:	56                   	push   %esi
  80055c:	53                   	push   %ebx
	serve_init(inet_addr(IP),
  80055d:	83 ec 0c             	sub    $0xc,%esp
  800560:	68 4b 13 81 00       	push   $0x81134b
  800565:	e8 12 76 00 00       	call   807b7c <inet_addr>
  80056a:	89 c6                	mov    %eax,%esi
  80056c:	c7 04 24 54 13 81 00 	movl   $0x811354,(%esp)
  800573:	e8 04 76 00 00       	call   807b7c <inet_addr>
  800578:	89 c3                	mov    %eax,%ebx
  80057a:	c7 04 24 62 13 81 00 	movl   $0x811362,(%esp)
  800581:	e8 f6 75 00 00       	call   807b7c <inet_addr>
  800586:	83 c4 0c             	add    $0xc,%esp
  800589:	56                   	push   %esi
  80058a:	53                   	push   %ebx
  80058b:	50                   	push   %eax
  80058c:	e8 fc fc ff ff       	call   80028d <serve_init>
		   inet_addr(MASK),
		   inet_addr(DEFAULT));
	serve();
  800591:	e8 5c fe ff ff       	call   8003f2 <serve>

00800596 <umain>:
}

void
umain(int argc, char **argv)
{
  800596:	f3 0f 1e fb          	endbr32 
  80059a:	55                   	push   %ebp
  80059b:	89 e5                	mov    %esp,%ebp
  80059d:	53                   	push   %ebx
  80059e:	83 ec 04             	sub    $0x4,%esp
	envid_t ns_envid = sys_getenvid();
  8005a1:	e8 a5 ee 00 00       	call   80f44b <sys_getenvid>
  8005a6:	89 c3                	mov    %eax,%ebx

	binaryname = "ns";
  8005a8:	c7 05 e8 42 81 00 57 	movl   $0x813d57,0x8142e8
  8005af:	3d 81 00 

	// fork off the timer thread which will send us periodic messages
	timer_envid = fork();
  8005b2:	e8 6d f1 00 00       	call   80f724 <fork>
  8005b7:	a3 18 50 81 00       	mov    %eax,0x815018
	if (timer_envid < 0)
  8005bc:	85 c0                	test   %eax,%eax
  8005be:	78 43                	js     800603 <umain+0x6d>
		panic("error forking");
	else if (timer_envid == 0) {
  8005c0:	74 58                	je     80061a <umain+0x84>
		return;
	}

	// fork off the input thread which will poll the NIC driver for input
	// packets
	input_envid = fork();
  8005c2:	e8 5d f1 00 00       	call   80f724 <fork>
	if (input_envid < 0)
  8005c7:	85 c0                	test   %eax,%eax
  8005c9:	78 65                	js     800630 <umain+0x9a>
		panic("error forking");
	else if (input_envid == 0) {
  8005cb:	74 7a                	je     800647 <umain+0xb1>
		return;
	}

	// fork off the output thread that will send the packets to the NIC
	// driver
	output_envid = fork();
  8005cd:	e8 52 f1 00 00       	call   80f724 <fork>
  8005d2:	a3 14 50 81 00       	mov    %eax,0x815014
	if (output_envid < 0)
  8005d7:	85 c0                	test   %eax,%eax
  8005d9:	78 7a                	js     800655 <umain+0xbf>
		panic("error forking");
	else if (output_envid == 0) {
  8005db:	0f 84 8b 00 00 00    	je     80066c <umain+0xd6>
		return;
	}

	// lwIP requires a user threading library; start the library and jump
	// into a thread to continue initialization.
	thread_init();
  8005e1:	e8 96 a2 00 00       	call   80a87c <thread_init>
	thread_create(0, "main", tmain, 0);
  8005e6:	6a 00                	push   $0x0
  8005e8:	68 54 05 80 00       	push   $0x800554
  8005ed:	68 7a 13 81 00       	push   $0x81137a
  8005f2:	6a 00                	push   $0x0
  8005f4:	e8 29 a3 00 00       	call   80a922 <thread_create>
	thread_yield();
  8005f9:	e8 51 a4 00 00       	call   80aa4f <thread_yield>
  8005fe:	83 c4 10             	add    $0x10,%esp
  800601:	eb 28                	jmp    80062b <umain+0x95>
		panic("error forking");
  800603:	83 ec 04             	sub    $0x4,%esp
  800606:	68 6c 13 81 00       	push   $0x81136c
  80060b:	68 44 01 00 00       	push   $0x144
  800610:	68 d5 12 81 00       	push   $0x8112d5
  800615:	e8 1d e3 00 00       	call   80e937 <_panic>
		timer(ns_envid, TIMER_INTERVAL);
  80061a:	83 ec 08             	sub    $0x8,%esp
  80061d:	68 fa 00 00 00       	push   $0xfa
  800622:	53                   	push   %ebx
  800623:	e8 52 00 00 00       	call   80067a <timer>
		return;
  800628:	83 c4 10             	add    $0x10,%esp
	// never coming here!
}
  80062b:	8b 5d fc             	mov    -0x4(%ebp),%ebx
  80062e:	c9                   	leave  
  80062f:	c3                   	ret    
		panic("error forking");
  800630:	83 ec 04             	sub    $0x4,%esp
  800633:	68 6c 13 81 00       	push   $0x81136c
  800638:	68 4e 01 00 00       	push   $0x14e
  80063d:	68 d5 12 81 00       	push   $0x8112d5
  800642:	e8 f0 e2 00 00       	call   80e937 <_panic>
		input(ns_envid);
  800647:	83 ec 0c             	sub    $0xc,%esp
  80064a:	53                   	push   %ebx
  80064b:	e8 c1 00 00 00       	call   800711 <input>
		return;
  800650:	83 c4 10             	add    $0x10,%esp
  800653:	eb d6                	jmp    80062b <umain+0x95>
		panic("error forking");
  800655:	83 ec 04             	sub    $0x4,%esp
  800658:	68 6c 13 81 00       	push   $0x81136c
  80065d:	68 58 01 00 00       	push   $0x158
  800662:	68 d5 12 81 00       	push   $0x8112d5
  800667:	e8 cb e2 00 00       	call   80e937 <_panic>
		output(ns_envid);
  80066c:	83 ec 0c             	sub    $0xc,%esp
  80066f:	53                   	push   %ebx
  800670:	e8 57 01 00 00       	call   8007cc <output>
		return;
  800675:	83 c4 10             	add    $0x10,%esp
  800678:	eb b1                	jmp    80062b <umain+0x95>

0080067a <timer>:
#include "ns.h"

void
timer(envid_t ns_envid, uint32_t initial_to) {
  80067a:	f3 0f 1e fb          	endbr32 
  80067e:	55                   	push   %ebp
  80067f:	89 e5                	mov    %esp,%ebp
  800681:	57                   	push   %edi
  800682:	56                   	push   %esi
  800683:	53                   	push   %ebx
  800684:	83 ec 1c             	sub    $0x1c,%esp
  800687:	8b 75 08             	mov    0x8(%ebp),%esi
	int r;
	uint32_t stop = sys_time_msec() + initial_to;
  80068a:	e8 2c ef 00 00       	call   80f5bb <sys_time_msec>
  80068f:	03 45 0c             	add    0xc(%ebp),%eax
  800692:	89 c3                	mov    %eax,%ebx

	binaryname = "ns_timer";
  800694:	c7 05 e8 42 81 00 ac 	movl   $0x8113ac,0x8142e8
  80069b:	13 81 00 

		ipc_send(ns_envid, NSREQ_TIMER, 0, 0);

		while (1) {
			uint32_t to, whom;
			to = ipc_recv((int32_t *) &whom, 0, 0);
  80069e:	8d 7d e4             	lea    -0x1c(%ebp),%edi
  8006a1:	eb 33                	jmp    8006d6 <timer+0x5c>
		if (r < 0)
  8006a3:	85 c0                	test   %eax,%eax
  8006a5:	78 45                	js     8006ec <timer+0x72>
		ipc_send(ns_envid, NSREQ_TIMER, 0, 0);
  8006a7:	6a 00                	push   $0x0
  8006a9:	6a 00                	push   $0x0
  8006ab:	6a 0c                	push   $0xc
  8006ad:	56                   	push   %esi
  8006ae:	e8 6f f2 00 00       	call   80f922 <ipc_send>
  8006b3:	83 c4 10             	add    $0x10,%esp
			to = ipc_recv((int32_t *) &whom, 0, 0);
  8006b6:	83 ec 04             	sub    $0x4,%esp
  8006b9:	6a 00                	push   $0x0
  8006bb:	6a 00                	push   $0x0
  8006bd:	57                   	push   %edi
  8006be:	e8 f2 f1 00 00       	call   80f8b5 <ipc_recv>
  8006c3:	89 c3                	mov    %eax,%ebx

			if (whom != ns_envid) {
  8006c5:	8b 45 e4             	mov    -0x1c(%ebp),%eax
  8006c8:	83 c4 10             	add    $0x10,%esp
  8006cb:	39 f0                	cmp    %esi,%eax
  8006cd:	75 2f                	jne    8006fe <timer+0x84>
				cprintf("NS TIMER: timer thread got IPC message from env %x not NS\n", whom);
				continue;
			}

			stop = sys_time_msec() + to;
  8006cf:	e8 e7 ee 00 00       	call   80f5bb <sys_time_msec>
  8006d4:	01 c3                	add    %eax,%ebx
		while((r = sys_time_msec()) < stop && r >= 0) {
  8006d6:	e8 e0 ee 00 00       	call   80f5bb <sys_time_msec>
  8006db:	89 c2                	mov    %eax,%edx
  8006dd:	85 c0                	test   %eax,%eax
  8006df:	78 c2                	js     8006a3 <timer+0x29>
  8006e1:	39 d8                	cmp    %ebx,%eax
  8006e3:	73 be                	jae    8006a3 <timer+0x29>
			sys_yield();
  8006e5:	e8 84 ed 00 00       	call   80f46e <sys_yield>
  8006ea:	eb ea                	jmp    8006d6 <timer+0x5c>
			panic("sys_time_msec: %e", r);
  8006ec:	52                   	push   %edx
  8006ed:	68 b5 13 81 00       	push   $0x8113b5
  8006f2:	6a 0f                	push   $0xf
  8006f4:	68 c7 13 81 00       	push   $0x8113c7
  8006f9:	e8 39 e2 00 00       	call   80e937 <_panic>
				cprintf("NS TIMER: timer thread got IPC message from env %x not NS\n", whom);
  8006fe:	83 ec 08             	sub    $0x8,%esp
  800701:	50                   	push   %eax
  800702:	68 d4 13 81 00       	push   $0x8113d4
  800707:	e8 12 e3 00 00       	call   80ea1e <cprintf>
				continue;
  80070c:	83 c4 10             	add    $0x10,%esp
  80070f:	eb a5                	jmp    8006b6 <timer+0x3c>

00800711 <input>:
// 这里值得注意的一点是 有可能收包（sys_netpacket_recv）太快, 
// 发送给服务器时 服务器可能读取速度慢了 导致相应的内容被冲刷, 所以这里用一个临时存储
// 将收到的数据保存在input helper environment里
void
input(envid_t ns_envid)
{
  800711:	f3 0f 1e fb          	endbr32 
  800715:	55                   	push   %ebp
  800716:	89 e5                	mov    %esp,%ebp
  800718:	57                   	push   %edi
  800719:	56                   	push   %esi
  80071a:	53                   	push   %ebx
  80071b:	83 ec 0c             	sub    $0xc,%esp
  80071e:	8b 7d 08             	mov    0x8(%ebp),%edi
	binaryname = "ns_input";
  800721:	c7 05 e8 42 81 00 0f 	movl   $0x81140f,0x8142e8
  800728:	14 81 00 
  80072b:	bb 00 b0 fe 0f       	mov    $0xffeb000,%ebx
	int i, r;
	int32_t length;
	struct jif_pkt *cpkt = pkt;
	
	for(i = 0; i < 10; i++)
		if ((r = sys_page_alloc(0, (void*)((uintptr_t)pkt + i * PGSIZE), PTE_P | PTE_U | PTE_W)) < 0)
  800730:	83 ec 04             	sub    $0x4,%esp
  800733:	6a 07                	push   $0x7
  800735:	53                   	push   %ebx
  800736:	6a 00                	push   $0x0
  800738:	e8 54 ed 00 00       	call   80f491 <sys_page_alloc>
  80073d:	83 c4 10             	add    $0x10,%esp
  800740:	85 c0                	test   %eax,%eax
  800742:	78 1a                	js     80075e <input+0x4d>
  800744:	81 c3 00 10 00 00    	add    $0x1000,%ebx
	for(i = 0; i < 10; i++)
  80074a:	81 fb 00 50 ff 0f    	cmp    $0xfff5000,%ebx
  800750:	75 de                	jne    800730 <input+0x1f>
	struct jif_pkt *cpkt = pkt;
  800752:	be 00 b0 fe 0f       	mov    $0xffeb000,%esi
			panic("sys_page_alloc: %e", r);
	
	i = 0;
  800757:	bb 00 00 00 00       	mov    $0x0,%ebx
  80075c:	eb 17                	jmp    800775 <input+0x64>
			panic("sys_page_alloc: %e", r);
  80075e:	50                   	push   %eax
  80075f:	68 18 14 81 00       	push   $0x811418
  800764:	6a 34                	push   $0x34
  800766:	68 2b 14 81 00       	push   $0x81142b
  80076b:	e8 c7 e1 00 00       	call   80e937 <_panic>
	while(1) {
		while((length = sys_netpacket_recv((void*)((uintptr_t)cpkt + sizeof(cpkt->jp_len)), PGSIZE - sizeof(cpkt->jp_len))) < 0) {
			// cprintf("len: %d\n", length);
			sys_yield();
  800770:	e8 f9 ec 00 00       	call   80f46e <sys_yield>
		while((length = sys_netpacket_recv((void*)((uintptr_t)cpkt + sizeof(cpkt->jp_len)), PGSIZE - sizeof(cpkt->jp_len))) < 0) {
  800775:	83 ec 08             	sub    $0x8,%esp
  800778:	68 fc 0f 00 00       	push   $0xffc
  80077d:	8d 46 04             	lea    0x4(%esi),%eax
  800780:	50                   	push   %eax
  800781:	e8 7d ee 00 00       	call   80f603 <sys_netpacket_recv>
  800786:	83 c4 10             	add    $0x10,%esp
  800789:	85 c0                	test   %eax,%eax
  80078b:	78 e3                	js     800770 <input+0x5f>
		}

		cpkt->jp_len = length;
  80078d:	89 06                	mov    %eax,(%esi)
		ipc_send(ns_envid, NSREQ_INPUT, cpkt, PTE_P | PTE_U);
  80078f:	6a 05                	push   $0x5
  800791:	56                   	push   %esi
  800792:	6a 0a                	push   $0xa
  800794:	57                   	push   %edi
  800795:	e8 88 f1 00 00       	call   80f922 <ipc_send>
		i = (i + 1) % 10;
  80079a:	8d 4b 01             	lea    0x1(%ebx),%ecx
  80079d:	b8 67 66 66 66       	mov    $0x66666667,%eax
  8007a2:	f7 e9                	imul   %ecx
  8007a4:	c1 fa 02             	sar    $0x2,%edx
  8007a7:	89 c8                	mov    %ecx,%eax
  8007a9:	c1 f8 1f             	sar    $0x1f,%eax
  8007ac:	29 c2                	sub    %eax,%edx
  8007ae:	8d 04 92             	lea    (%edx,%edx,4),%eax
  8007b1:	01 c0                	add    %eax,%eax
  8007b3:	29 c1                	sub    %eax,%ecx
  8007b5:	89 cb                	mov    %ecx,%ebx
		cpkt = (struct jif_pkt*)((uintptr_t)pkt + i * PGSIZE);
  8007b7:	89 ce                	mov    %ecx,%esi
  8007b9:	c1 e6 0c             	shl    $0xc,%esi
  8007bc:	81 c6 00 b0 fe 0f    	add    $0xffeb000,%esi
		sys_yield();
  8007c2:	e8 a7 ec 00 00       	call   80f46e <sys_yield>
		while((length = sys_netpacket_recv((void*)((uintptr_t)cpkt + sizeof(cpkt->jp_len)), PGSIZE - sizeof(cpkt->jp_len))) < 0) {
  8007c7:	83 c4 10             	add    $0x10,%esp
  8007ca:	eb a9                	jmp    800775 <input+0x64>

008007cc <output>:

extern union Nsipc nsipcbuf;

void
output(envid_t ns_envid)
{
  8007cc:	f3 0f 1e fb          	endbr32 
  8007d0:	55                   	push   %ebp
  8007d1:	89 e5                	mov    %esp,%ebp
  8007d3:	56                   	push   %esi
  8007d4:	53                   	push   %ebx
  8007d5:	83 ec 10             	sub    $0x10,%esp
	binaryname = "ns_output";
  8007d8:	c7 05 e8 42 81 00 37 	movl   $0x811437,0x8142e8
  8007df:	14 81 00 
	// LAB 6: Your code here:
	// 	- read a packet from the network server
	//	- send the packet to the device driver
	int perm; envid_t envid;
	while(1){
		if (ipc_recv(&envid, &nsipcbuf, &perm) != NSREQ_OUTPUT)
  8007e2:	8d 75 f4             	lea    -0xc(%ebp),%esi
  8007e5:	8d 5d f0             	lea    -0x10(%ebp),%ebx
  8007e8:	eb 1f                	jmp    800809 <output+0x3d>
			continue;
		while(sys_netpacket_try_send(&nsipcbuf.pkt.jp_data, nsipcbuf.pkt.jp_len)<0){
			// 说明tx_desc_ring还没准备/队列已满
			sys_yield();
  8007ea:	e8 7f ec 00 00       	call   80f46e <sys_yield>
		while(sys_netpacket_try_send(&nsipcbuf.pkt.jp_data, nsipcbuf.pkt.jp_len)<0){
  8007ef:	83 ec 08             	sub    $0x8,%esp
  8007f2:	ff 35 00 d0 b3 00    	pushl  0xb3d000
  8007f8:	68 04 d0 b3 00       	push   $0xb3d004
  8007fd:	e8 dc ed 00 00       	call   80f5de <sys_netpacket_try_send>
  800802:	83 c4 10             	add    $0x10,%esp
  800805:	85 c0                	test   %eax,%eax
  800807:	78 e1                	js     8007ea <output+0x1e>
		if (ipc_recv(&envid, &nsipcbuf, &perm) != NSREQ_OUTPUT)
  800809:	83 ec 04             	sub    $0x4,%esp
  80080c:	56                   	push   %esi
  80080d:	68 00 d0 b3 00       	push   $0xb3d000
  800812:	53                   	push   %ebx
  800813:	e8 9d f0 00 00       	call   80f8b5 <ipc_recv>
  800818:	83 c4 10             	add    $0x10,%esp
  80081b:	83 f8 0b             	cmp    $0xb,%eax
  80081e:	75 e9                	jne    800809 <output+0x3d>
  800820:	eb cd                	jmp    8007ef <output+0x23>

00800822 <get_socket>:
static struct lwip_socket *
get_socket(int s)
{
  struct lwip_socket *sock;

  if ((s < 0) || (s >= NUM_SOCKETS)) {
  800822:	83 f8 1f             	cmp    $0x1f,%eax
  800825:	77 1b                	ja     800842 <get_socket+0x20>
    LWIP_DEBUGF(SOCKETS_DEBUG, ("get_socket(%d): invalid\n", s));
    set_errno(EBADF);
    return NULL;
  }

  sock = &sockets[s];
  800827:	8d 14 80             	lea    (%eax,%eax,4),%edx
  80082a:	8d 14 95 60 50 81 00 	lea    0x815060(,%edx,4),%edx

  if (!sock->conn) {
  800831:	8d 04 80             	lea    (%eax,%eax,4),%eax
  800834:	8b 04 85 60 50 81 00 	mov    0x815060(,%eax,4),%eax
  80083b:	85 c0                	test   %eax,%eax
  80083d:	74 14                	je     800853 <get_socket+0x31>
    set_errno(EBADF);
    return NULL;
  }

  return sock;
}
  80083f:	89 d0                	mov    %edx,%eax
  800841:	c3                   	ret    
    set_errno(EBADF);
  800842:	c7 05 e0 b1 b3 00 09 	movl   $0x9,0xb3b1e0
  800849:	00 00 00 
    return NULL;
  80084c:	ba 00 00 00 00       	mov    $0x0,%edx
  800851:	eb ec                	jmp    80083f <get_socket+0x1d>
    set_errno(EBADF);
  800853:	c7 05 e0 b1 b3 00 09 	movl   $0x9,0xb3b1e0
  80085a:	00 00 00 
    return NULL;
  80085d:	89 c2                	mov    %eax,%edx
  80085f:	eb de                	jmp    80083f <get_socket+0x1d>

00800861 <lwip_selscan>:
 * @param exceptset not yet implemented
 * @return number of sockets that had events (read+write)
 */
static int
lwip_selscan(int maxfdp1, fd_set *readset, fd_set *writeset, fd_set *exceptset)
{
  800861:	55                   	push   %ebp
  800862:	89 e5                	mov    %esp,%ebp
  800864:	57                   	push   %edi
  800865:	56                   	push   %esi
  800866:	53                   	push   %ebx
  800867:	83 ec 40             	sub    $0x40,%esp
  80086a:	89 45 d0             	mov    %eax,-0x30(%ebp)
  80086d:	89 55 cc             	mov    %edx,-0x34(%ebp)
  800870:	89 4d c8             	mov    %ecx,-0x38(%ebp)
  int i, nready = 0;
  fd_set lreadset, lwriteset, lexceptset;
  struct lwip_socket *p_sock;
  
  FD_ZERO(&lreadset);
  800873:	6a 04                	push   $0x4
  800875:	6a 00                	push   $0x0
  800877:	8d 45 e4             	lea    -0x1c(%ebp),%eax
  80087a:	50                   	push   %eax
  80087b:	e8 5a e9 00 00       	call   80f1da <memset>
  FD_ZERO(&lwriteset);
  800880:	83 c4 0c             	add    $0xc,%esp
  800883:	6a 04                	push   $0x4
  800885:	6a 00                	push   $0x0
  800887:	8d 45 e0             	lea    -0x20(%ebp),%eax
  80088a:	50                   	push   %eax
  80088b:	e8 4a e9 00 00       	call   80f1da <memset>
  FD_ZERO(&lexceptset);
  800890:	83 c4 0c             	add    $0xc,%esp
  800893:	6a 04                	push   $0x4
  800895:	6a 00                	push   $0x0
  800897:	8d 45 dc             	lea    -0x24(%ebp),%eax
  80089a:	50                   	push   %eax
  80089b:	e8 3a e9 00 00       	call   80f1da <memset>
  
  /* Go through each socket in each list to count number of sockets which
  currently match */
  for(i = 0; i < maxfdp1; i++) {
  8008a0:	83 c4 10             	add    $0x10,%esp
  int i, nready = 0;
  8008a3:	c7 45 c4 00 00 00 00 	movl   $0x0,-0x3c(%ebp)
  for(i = 0; i < maxfdp1; i++) {
  8008aa:	bf 00 00 00 00       	mov    $0x0,%edi
  8008af:	eb 33                	jmp    8008e4 <lwip_selscan+0x83>
    if (FD_ISSET(i, readset)) {
      /* See if netconn of this socket is ready for read */
      p_sock = get_socket(i);
  8008b1:	89 f8                	mov    %edi,%eax
  8008b3:	e8 6a ff ff ff       	call   800822 <get_socket>
      if (p_sock && (p_sock->lastdata || p_sock->rcvevent)) {
  8008b8:	85 c0                	test   %eax,%eax
  8008ba:	74 4c                	je     800908 <lwip_selscan+0xa7>
  8008bc:	83 78 04 00          	cmpl   $0x0,0x4(%eax)
  8008c0:	74 16                	je     8008d8 <lwip_selscan+0x77>
        FD_SET(i, &lreadset);
  8008c2:	b8 01 00 00 00       	mov    $0x1,%eax
  8008c7:	89 f1                	mov    %esi,%ecx
  8008c9:	d3 e0                	shl    %cl,%eax
  8008cb:	8b 55 d4             	mov    -0x2c(%ebp),%edx
  8008ce:	08 44 15 e4          	or     %al,-0x1c(%ebp,%edx,1)
        LWIP_DEBUGF(SOCKETS_DEBUG, ("lwip_selscan: fd=%d ready for reading\n", i));
        nready++;
  8008d2:	83 45 c4 01          	addl   $0x1,-0x3c(%ebp)
  8008d6:	eb 30                	jmp    800908 <lwip_selscan+0xa7>
      if (p_sock && (p_sock->lastdata || p_sock->rcvevent)) {
  8008d8:	66 83 78 0a 00       	cmpw   $0x0,0xa(%eax)
  8008dd:	74 29                	je     800908 <lwip_selscan+0xa7>
  8008df:	eb e1                	jmp    8008c2 <lwip_selscan+0x61>
  for(i = 0; i < maxfdp1; i++) {
  8008e1:	83 c7 01             	add    $0x1,%edi
  8008e4:	3b 7d d0             	cmp    -0x30(%ebp),%edi
  8008e7:	7d 53                	jge    80093c <lwip_selscan+0xdb>
    if (FD_ISSET(i, readset)) {
  8008e9:	8d 5f 07             	lea    0x7(%edi),%ebx
  8008ec:	85 ff                	test   %edi,%edi
  8008ee:	0f 49 df             	cmovns %edi,%ebx
  8008f1:	c1 fb 03             	sar    $0x3,%ebx
  8008f4:	89 5d d4             	mov    %ebx,-0x2c(%ebp)
  8008f7:	89 fe                	mov    %edi,%esi
  8008f9:	83 e6 07             	and    $0x7,%esi
  8008fc:	8b 45 cc             	mov    -0x34(%ebp),%eax
  8008ff:	0f b6 04 18          	movzbl (%eax,%ebx,1),%eax
  800903:	0f a3 f0             	bt     %esi,%eax
  800906:	72 a9                	jb     8008b1 <lwip_selscan+0x50>
      }
    }
    if (FD_ISSET(i, writeset)) {
  800908:	8b 45 c8             	mov    -0x38(%ebp),%eax
  80090b:	0f b6 04 18          	movzbl (%eax,%ebx,1),%eax
  80090f:	0f a3 f0             	bt     %esi,%eax
  800912:	73 cd                	jae    8008e1 <lwip_selscan+0x80>
      /* See if netconn of this socket is ready for write */
      p_sock = get_socket(i);
  800914:	89 f8                	mov    %edi,%eax
  800916:	e8 07 ff ff ff       	call   800822 <get_socket>
      if (p_sock && p_sock->sendevent) {
  80091b:	85 c0                	test   %eax,%eax
  80091d:	74 c2                	je     8008e1 <lwip_selscan+0x80>
  80091f:	66 83 78 0c 00       	cmpw   $0x0,0xc(%eax)
  800924:	74 bb                	je     8008e1 <lwip_selscan+0x80>
        FD_SET(i, &lwriteset);
  800926:	b8 01 00 00 00       	mov    $0x1,%eax
  80092b:	89 f1                	mov    %esi,%ecx
  80092d:	d3 e0                	shl    %cl,%eax
  80092f:	8b 55 d4             	mov    -0x2c(%ebp),%edx
  800932:	08 44 15 e0          	or     %al,-0x20(%ebp,%edx,1)
        LWIP_DEBUGF(SOCKETS_DEBUG, ("lwip_selscan: fd=%d ready for writing\n", i));
        nready++;
  800936:	83 45 c4 01          	addl   $0x1,-0x3c(%ebp)
  80093a:	eb a5                	jmp    8008e1 <lwip_selscan+0x80>
      }
    }
  }
  *readset = lreadset;
  80093c:	8b 45 e4             	mov    -0x1c(%ebp),%eax
  80093f:	8b 55 cc             	mov    -0x34(%ebp),%edx
  800942:	89 02                	mov    %eax,(%edx)
  *writeset = lwriteset;
  800944:	8b 45 e0             	mov    -0x20(%ebp),%eax
  800947:	8b 4d c8             	mov    -0x38(%ebp),%ecx
  80094a:	89 01                	mov    %eax,(%ecx)
  FD_ZERO(exceptset);
  80094c:	83 ec 04             	sub    $0x4,%esp
  80094f:	6a 04                	push   $0x4
  800951:	6a 00                	push   $0x0
  800953:	ff 75 08             	pushl  0x8(%ebp)
  800956:	e8 7f e8 00 00       	call   80f1da <memset>
  
  return nready;
}
  80095b:	8b 45 c4             	mov    -0x3c(%ebp),%eax
  80095e:	8d 65 f4             	lea    -0xc(%ebp),%esp
  800961:	5b                   	pop    %ebx
  800962:	5e                   	pop    %esi
  800963:	5f                   	pop    %edi
  800964:	5d                   	pop    %ebp
  800965:	c3                   	ret    

00800966 <lwip_getaddrname>:
  return lwip_close(s); /* XXX temporary hack until proper implementation */
}

static int
lwip_getaddrname(int s, struct sockaddr *name, socklen_t *namelen, u8_t local)
{
  800966:	55                   	push   %ebp
  800967:	89 e5                	mov    %esp,%ebp
  800969:	57                   	push   %edi
  80096a:	56                   	push   %esi
  80096b:	53                   	push   %ebx
  80096c:	83 ec 3c             	sub    $0x3c,%esp
  80096f:	89 55 c4             	mov    %edx,-0x3c(%ebp)
  800972:	89 ce                	mov    %ecx,%esi
  800974:	8b 7d 08             	mov    0x8(%ebp),%edi
  struct lwip_socket *sock;
  struct sockaddr_in sin;
  struct ip_addr naddr;

  sock = get_socket(s);
  800977:	e8 a6 fe ff ff       	call   800822 <get_socket>
  if (!sock)
  80097c:	85 c0                	test   %eax,%eax
  80097e:	0f 84 86 00 00 00    	je     800a0a <lwip_getaddrname+0xa4>
  800984:	89 c3                	mov    %eax,%ebx
    return -1;

  memset(&sin, 0, sizeof(sin));
  800986:	83 ec 04             	sub    $0x4,%esp
  800989:	6a 10                	push   $0x10
  80098b:	6a 00                	push   $0x0
  80098d:	8d 45 d8             	lea    -0x28(%ebp),%eax
  800990:	50                   	push   %eax
  800991:	e8 44 e8 00 00       	call   80f1da <memset>
  sin.sin_len = sizeof(sin);
  800996:	c6 45 d8 10          	movb   $0x10,-0x28(%ebp)
  sin.sin_family = AF_INET;
  80099a:	c6 45 d9 02          	movb   $0x2,-0x27(%ebp)

  /* get the IP address and port */
  netconn_getaddr(sock->conn, &naddr, &sin.sin_port, local);
  80099e:	89 f8                	mov    %edi,%eax
  8009a0:	0f b6 f8             	movzbl %al,%edi
  8009a3:	57                   	push   %edi
  8009a4:	8d 45 da             	lea    -0x26(%ebp),%eax
  8009a7:	50                   	push   %eax
  8009a8:	8d 45 d4             	lea    -0x2c(%ebp),%eax
  8009ab:	50                   	push   %eax
  8009ac:	ff 33                	pushl  (%ebx)
  8009ae:	e8 a3 a6 00 00       	call   80b056 <netconn_getaddr>

  LWIP_DEBUGF(SOCKETS_DEBUG, ("lwip_getaddrname(%d, addr=", s));
  //ip_addr_debug_print(SOCKETS_DEBUG, &naddr);
  LWIP_DEBUGF(SOCKETS_DEBUG, (" port=%d)\n", sin.sin_port));

  sin.sin_port = htons(sin.sin_port);
  8009b3:	83 c4 14             	add    $0x14,%esp
  8009b6:	0f b7 45 da          	movzwl -0x26(%ebp),%eax
  8009ba:	50                   	push   %eax
  8009bb:	e8 93 6f 00 00       	call   807953 <htons>
  8009c0:	66 89 45 da          	mov    %ax,-0x26(%ebp)
  sin.sin_addr.s_addr = naddr.addr;
  8009c4:	8b 45 d4             	mov    -0x2c(%ebp),%eax
  8009c7:	89 45 dc             	mov    %eax,-0x24(%ebp)

  if (*namelen > sizeof(sin))
  8009ca:	83 c4 10             	add    $0x10,%esp
  8009cd:	83 3e 10             	cmpl   $0x10,(%esi)
  8009d0:	76 06                	jbe    8009d8 <lwip_getaddrname+0x72>
    *namelen = sizeof(sin);
  8009d2:	c7 06 10 00 00 00    	movl   $0x10,(%esi)

  SMEMCPY(name, &sin, *namelen);
  8009d8:	83 ec 04             	sub    $0x4,%esp
  8009db:	ff 36                	pushl  (%esi)
  8009dd:	8d 45 d8             	lea    -0x28(%ebp),%eax
  8009e0:	50                   	push   %eax
  8009e1:	ff 75 c4             	pushl  -0x3c(%ebp)
  8009e4:	e8 a3 e8 00 00       	call   80f28c <memcpy>
  sock_set_errno(sock, 0);
  8009e9:	c7 43 10 00 00 00 00 	movl   $0x0,0x10(%ebx)
  8009f0:	c7 05 e0 b1 b3 00 00 	movl   $0x0,0xb3b1e0
  8009f7:	00 00 00 
  return 0;
  8009fa:	83 c4 10             	add    $0x10,%esp
  8009fd:	b8 00 00 00 00       	mov    $0x0,%eax
}
  800a02:	8d 65 f4             	lea    -0xc(%ebp),%esp
  800a05:	5b                   	pop    %ebx
  800a06:	5e                   	pop    %esi
  800a07:	5f                   	pop    %edi
  800a08:	5d                   	pop    %ebp
  800a09:	c3                   	ret    
    return -1;
  800a0a:	b8 ff ff ff ff       	mov    $0xffffffff,%eax
  800a0f:	eb f1                	jmp    800a02 <lwip_getaddrname+0x9c>

00800a11 <event_callback>:
{
  800a11:	f3 0f 1e fb          	endbr32 
  800a15:	55                   	push   %ebp
  800a16:	89 e5                	mov    %esp,%ebp
  800a18:	57                   	push   %edi
  800a19:	56                   	push   %esi
  800a1a:	53                   	push   %ebx
  800a1b:	83 ec 1c             	sub    $0x1c,%esp
  800a1e:	8b 7d 08             	mov    0x8(%ebp),%edi
  800a21:	8b 75 0c             	mov    0xc(%ebp),%esi
  if (conn) {
  800a24:	85 ff                	test   %edi,%edi
  800a26:	0f 84 80 01 00 00    	je     800bac <event_callback+0x19b>
    s = conn->socket;
  800a2c:	8b 5f 1c             	mov    0x1c(%edi),%ebx
    if (s < 0) {
  800a2f:	85 db                	test   %ebx,%ebx
  800a31:	78 3c                	js     800a6f <event_callback+0x5e>
    sock = get_socket(s);
  800a33:	89 d8                	mov    %ebx,%eax
  800a35:	e8 e8 fd ff ff       	call   800822 <get_socket>
  800a3a:	89 45 e4             	mov    %eax,-0x1c(%ebp)
    if (!sock) {
  800a3d:	85 c0                	test   %eax,%eax
  800a3f:	0f 84 67 01 00 00    	je     800bac <event_callback+0x19b>
  sys_sem_wait(selectsem);
  800a45:	83 ec 0c             	sub    $0xc,%esp
  800a48:	ff 35 40 50 81 00    	pushl  0x815040
  800a4e:	e8 cd 48 00 00       	call   805320 <sys_sem_wait>
  switch (evt) {
  800a53:	83 c4 10             	add    $0x10,%esp
  800a56:	83 fe 02             	cmp    $0x2,%esi
  800a59:	0f 84 a0 00 00 00    	je     800aff <event_callback+0xee>
  800a5f:	77 59                	ja     800aba <event_callback+0xa9>
  800a61:	85 f6                	test   %esi,%esi
  800a63:	74 65                	je     800aca <event_callback+0xb9>
      sock->rcvevent--;
  800a65:	8b 45 e4             	mov    -0x1c(%ebp),%eax
  800a68:	66 83 68 0a 01       	subw   $0x1,0xa(%eax)
      break;
  800a6d:	eb 63                	jmp    800ad2 <event_callback+0xc1>
      sys_sem_wait(socksem);
  800a6f:	83 ec 0c             	sub    $0xc,%esp
  800a72:	ff 35 44 50 81 00    	pushl  0x815044
  800a78:	e8 a3 48 00 00       	call   805320 <sys_sem_wait>
      if (conn->socket < 0) {
  800a7d:	8b 47 1c             	mov    0x1c(%edi),%eax
  800a80:	83 c4 10             	add    $0x10,%esp
  800a83:	85 c0                	test   %eax,%eax
  800a85:	78 13                	js     800a9a <event_callback+0x89>
      sys_sem_signal(socksem);
  800a87:	83 ec 0c             	sub    $0xc,%esp
  800a8a:	ff 35 44 50 81 00    	pushl  0x815044
  800a90:	e8 d8 98 00 00       	call   80a36d <sys_sem_signal>
  800a95:	83 c4 10             	add    $0x10,%esp
  800a98:	eb 99                	jmp    800a33 <event_callback+0x22>
        if (evt == NETCONN_EVT_RCVPLUS) {
  800a9a:	85 f6                	test   %esi,%esi
  800a9c:	75 06                	jne    800aa4 <event_callback+0x93>
          conn->socket--;
  800a9e:	83 e8 01             	sub    $0x1,%eax
  800aa1:	89 47 1c             	mov    %eax,0x1c(%edi)
        sys_sem_signal(socksem);
  800aa4:	83 ec 0c             	sub    $0xc,%esp
  800aa7:	ff 35 44 50 81 00    	pushl  0x815044
  800aad:	e8 bb 98 00 00       	call   80a36d <sys_sem_signal>
        return;
  800ab2:	83 c4 10             	add    $0x10,%esp
  800ab5:	e9 f2 00 00 00       	jmp    800bac <event_callback+0x19b>
  switch (evt) {
  800aba:	83 fe 03             	cmp    $0x3,%esi
  800abd:	75 4b                	jne    800b0a <event_callback+0xf9>
      sock->sendevent = 0;
  800abf:	8b 45 e4             	mov    -0x1c(%ebp),%eax
  800ac2:	66 c7 40 0c 00 00    	movw   $0x0,0xc(%eax)
      break;
  800ac8:	eb 08                	jmp    800ad2 <event_callback+0xc1>
      sock->rcvevent++;
  800aca:	8b 45 e4             	mov    -0x1c(%ebp),%eax
  800acd:	66 83 40 0a 01       	addw   $0x1,0xa(%eax)
  sys_sem_signal(selectsem);
  800ad2:	83 ec 0c             	sub    $0xc,%esp
  800ad5:	ff 35 40 50 81 00    	pushl  0x815040
  800adb:	e8 8d 98 00 00       	call   80a36d <sys_sem_signal>
        if (scb->readset && FD_ISSET(s, scb->readset))
  800ae0:	8d 73 07             	lea    0x7(%ebx),%esi
  800ae3:	83 c4 10             	add    $0x10,%esp
  800ae6:	85 db                	test   %ebx,%ebx
  800ae8:	0f 49 f3             	cmovns %ebx,%esi
  800aeb:	c1 fe 03             	sar    $0x3,%esi
  800aee:	89 d9                	mov    %ebx,%ecx
  800af0:	83 e1 07             	and    $0x7,%ecx
  800af3:	bf 01 00 00 00       	mov    $0x1,%edi
  800af8:	d3 e7                	shl    %cl,%edi
  800afa:	e9 83 00 00 00       	jmp    800b82 <event_callback+0x171>
      sock->sendevent = 1;
  800aff:	8b 45 e4             	mov    -0x1c(%ebp),%eax
  800b02:	66 c7 40 0c 01 00    	movw   $0x1,0xc(%eax)
      break;
  800b08:	eb c8                	jmp    800ad2 <event_callback+0xc1>
      LWIP_ASSERT("unknown event", 0);
  800b0a:	83 ec 04             	sub    $0x4,%esp
  800b0d:	68 41 14 81 00       	push   $0x811441
  800b12:	68 17 04 00 00       	push   $0x417
  800b17:	68 4f 14 81 00       	push   $0x81144f
  800b1c:	e8 16 de 00 00       	call   80e937 <_panic>
    for (scb = select_cb_list; scb; scb = scb->next) {
  800b21:	8b 1b                	mov    (%ebx),%ebx
  800b23:	85 db                	test   %ebx,%ebx
  800b25:	74 74                	je     800b9b <event_callback+0x18a>
      if (scb->sem_signalled == 0) {
  800b27:	83 7b 10 00          	cmpl   $0x0,0x10(%ebx)
  800b2b:	75 f4                	jne    800b21 <event_callback+0x110>
        if (scb->readset && FD_ISSET(s, scb->readset))
  800b2d:	8b 43 04             	mov    0x4(%ebx),%eax
  800b30:	85 c0                	test   %eax,%eax
  800b32:	74 12                	je     800b46 <event_callback+0x135>
  800b34:	0f b6 04 30          	movzbl (%eax,%esi,1),%eax
  800b38:	85 f8                	test   %edi,%eax
  800b3a:	74 0a                	je     800b46 <event_callback+0x135>
          if (sock->rcvevent)
  800b3c:	8b 45 e4             	mov    -0x1c(%ebp),%eax
  800b3f:	66 83 78 0a 00       	cmpw   $0x0,0xa(%eax)
  800b44:	75 19                	jne    800b5f <event_callback+0x14e>
        if (scb->writeset && FD_ISSET(s, scb->writeset))
  800b46:	8b 43 08             	mov    0x8(%ebx),%eax
  800b49:	85 c0                	test   %eax,%eax
  800b4b:	74 d4                	je     800b21 <event_callback+0x110>
  800b4d:	0f b6 04 30          	movzbl (%eax,%esi,1),%eax
  800b51:	85 f8                	test   %edi,%eax
  800b53:	74 cc                	je     800b21 <event_callback+0x110>
          if (sock->sendevent)
  800b55:	8b 45 e4             	mov    -0x1c(%ebp),%eax
  800b58:	66 83 78 0c 00       	cmpw   $0x0,0xc(%eax)
  800b5d:	74 c2                	je     800b21 <event_callback+0x110>
      scb->sem_signalled = 1;
  800b5f:	c7 43 10 01 00 00 00 	movl   $0x1,0x10(%ebx)
      sys_sem_signal(selectsem);
  800b66:	83 ec 0c             	sub    $0xc,%esp
  800b69:	ff 35 40 50 81 00    	pushl  0x815040
  800b6f:	e8 f9 97 00 00       	call   80a36d <sys_sem_signal>
      sys_sem_signal(scb->sem);
  800b74:	83 c4 04             	add    $0x4,%esp
  800b77:	ff 73 14             	pushl  0x14(%ebx)
  800b7a:	e8 ee 97 00 00       	call   80a36d <sys_sem_signal>
    sys_sem_wait(selectsem);
  800b7f:	83 c4 10             	add    $0x10,%esp
  800b82:	83 ec 0c             	sub    $0xc,%esp
  800b85:	ff 35 40 50 81 00    	pushl  0x815040
  800b8b:	e8 90 47 00 00       	call   805320 <sys_sem_wait>
    for (scb = select_cb_list; scb; scb = scb->next) {
  800b90:	8b 1d 48 50 81 00    	mov    0x815048,%ebx
  800b96:	83 c4 10             	add    $0x10,%esp
  800b99:	eb 88                	jmp    800b23 <event_callback+0x112>
      sys_sem_signal(selectsem);
  800b9b:	83 ec 0c             	sub    $0xc,%esp
  800b9e:	ff 35 40 50 81 00    	pushl  0x815040
  800ba4:	e8 c4 97 00 00       	call   80a36d <sys_sem_signal>
      break;
  800ba9:	83 c4 10             	add    $0x10,%esp
}
  800bac:	8d 65 f4             	lea    -0xc(%ebp),%esp
  800baf:	5b                   	pop    %ebx
  800bb0:	5e                   	pop    %esi
  800bb1:	5f                   	pop    %edi
  800bb2:	5d                   	pop    %ebp
  800bb3:	c3                   	ret    

00800bb4 <alloc_socket>:
{
  800bb4:	55                   	push   %ebp
  800bb5:	89 e5                	mov    %esp,%ebp
  800bb7:	56                   	push   %esi
  800bb8:	53                   	push   %ebx
  800bb9:	89 c6                	mov    %eax,%esi
  sys_sem_wait(socksem);
  800bbb:	83 ec 0c             	sub    $0xc,%esp
  800bbe:	ff 35 44 50 81 00    	pushl  0x815044
  800bc4:	e8 57 47 00 00       	call   805320 <sys_sem_wait>
  800bc9:	b8 60 50 81 00       	mov    $0x815060,%eax
  800bce:	83 c4 10             	add    $0x10,%esp
  for (i = 0; i < NUM_SOCKETS; ++i) {
  800bd1:	bb 00 00 00 00       	mov    $0x0,%ebx
    if (!sockets[i].conn) {
  800bd6:	83 38 00             	cmpl   $0x0,(%eax)
  800bd9:	74 23                	je     800bfe <alloc_socket+0x4a>
  for (i = 0; i < NUM_SOCKETS; ++i) {
  800bdb:	83 c3 01             	add    $0x1,%ebx
  800bde:	83 c0 14             	add    $0x14,%eax
  800be1:	83 fb 20             	cmp    $0x20,%ebx
  800be4:	75 f0                	jne    800bd6 <alloc_socket+0x22>
  sys_sem_signal(socksem);
  800be6:	83 ec 0c             	sub    $0xc,%esp
  800be9:	ff 35 44 50 81 00    	pushl  0x815044
  800bef:	e8 79 97 00 00       	call   80a36d <sys_sem_signal>
  return -1;
  800bf4:	83 c4 10             	add    $0x10,%esp
  800bf7:	bb ff ff ff ff       	mov    $0xffffffff,%ebx
  800bfc:	eb 55                	jmp    800c53 <alloc_socket+0x9f>
      sockets[i].conn       = newconn;
  800bfe:	8d 14 9b             	lea    (%ebx,%ebx,4),%edx
  800c01:	c1 e2 02             	shl    $0x2,%edx
  800c04:	89 b2 60 50 81 00    	mov    %esi,0x815060(%edx)
      sockets[i].lastdata   = NULL;
  800c0a:	c7 82 64 50 81 00 00 	movl   $0x0,0x815064(%edx)
  800c11:	00 00 00 
      sockets[i].lastoffset = 0;
  800c14:	66 c7 82 68 50 81 00 	movw   $0x0,0x815068(%edx)
  800c1b:	00 00 
      sockets[i].rcvevent   = 0;
  800c1d:	66 c7 82 6a 50 81 00 	movw   $0x0,0x81506a(%edx)
  800c24:	00 00 
      sockets[i].sendevent  = 1; /* TCP send buf is empty */
  800c26:	66 c7 82 6c 50 81 00 	movw   $0x1,0x81506c(%edx)
  800c2d:	01 00 
      sockets[i].flags      = 0;
  800c2f:	66 c7 82 6e 50 81 00 	movw   $0x0,0x81506e(%edx)
  800c36:	00 00 
      sockets[i].err        = 0;
  800c38:	c7 82 70 50 81 00 00 	movl   $0x0,0x815070(%edx)
  800c3f:	00 00 00 
      sys_sem_signal(socksem);
  800c42:	83 ec 0c             	sub    $0xc,%esp
  800c45:	ff 35 44 50 81 00    	pushl  0x815044
  800c4b:	e8 1d 97 00 00       	call   80a36d <sys_sem_signal>
      return i;
  800c50:	83 c4 10             	add    $0x10,%esp
}
  800c53:	89 d8                	mov    %ebx,%eax
  800c55:	8d 65 f8             	lea    -0x8(%ebp),%esp
  800c58:	5b                   	pop    %ebx
  800c59:	5e                   	pop    %esi
  800c5a:	5d                   	pop    %ebp
  800c5b:	c3                   	ret    

00800c5c <lwip_getsockopt_internal>:
  return err ? -1 : 0;
}

static void
lwip_getsockopt_internal(void *arg)
{
  800c5c:	f3 0f 1e fb          	endbr32 
  800c60:	55                   	push   %ebp
  800c61:	89 e5                	mov    %esp,%ebp
  800c63:	56                   	push   %esi
  800c64:	53                   	push   %ebx
  800c65:	8b 45 08             	mov    0x8(%ebp),%eax
#endif /* LWIP_DEBUG */
  int level, optname;
  void *optval;
  struct lwip_setgetsockopt_data *data;

  LWIP_ASSERT("arg != NULL", arg != NULL);
  800c68:	85 c0                	test   %eax,%eax
  800c6a:	74 3b                	je     800ca7 <lwip_getsockopt_internal+0x4b>

  data = (struct lwip_setgetsockopt_data*)arg;
  sock = data->sock;
  800c6c:	8b 18                	mov    (%eax),%ebx
#ifdef LWIP_DEBUG
  s = data->s;
#endif /* LWIP_DEBUG */
  level = data->level;
  800c6e:	8b 48 08             	mov    0x8(%eax),%ecx
  optname = data->optname;
  800c71:	8b 50 0c             	mov    0xc(%eax),%edx
  optval = data->optval;
  800c74:	8b 70 10             	mov    0x10(%eax),%esi

  switch (level) {
  800c77:	83 f9 06             	cmp    $0x6,%ecx
  800c7a:	0f 84 39 01 00 00    	je     800db9 <lwip_getsockopt_internal+0x15d>
  800c80:	81 f9 ff 0f 00 00    	cmp    $0xfff,%ecx
  800c86:	74 36                	je     800cbe <lwip_getsockopt_internal+0x62>
  800c88:	85 c9                	test   %ecx,%ecx
  800c8a:	0f 84 fb 00 00 00    	je     800d8b <lwip_getsockopt_internal+0x12f>
      break;
    }  /* switch (optname) */
    break;
#endif /* LWIP_UDP */
  } /* switch (level) */
  sys_sem_signal(sock->conn->op_completed);
  800c90:	83 ec 0c             	sub    $0xc,%esp
  800c93:	8b 03                	mov    (%ebx),%eax
  800c95:	ff 70 10             	pushl  0x10(%eax)
  800c98:	e8 d0 96 00 00       	call   80a36d <sys_sem_signal>
}
  800c9d:	83 c4 10             	add    $0x10,%esp
  800ca0:	8d 65 f8             	lea    -0x8(%ebp),%esp
  800ca3:	5b                   	pop    %ebx
  800ca4:	5e                   	pop    %esi
  800ca5:	5d                   	pop    %ebp
  800ca6:	c3                   	ret    
  LWIP_ASSERT("arg != NULL", arg != NULL);
  800ca7:	83 ec 04             	sub    $0x4,%esp
  800caa:	68 66 14 81 00       	push   $0x811466
  800caf:	68 38 05 00 00       	push   $0x538
  800cb4:	68 4f 14 81 00       	push   $0x81144f
  800cb9:	e8 79 dc 00 00       	call   80e937 <_panic>
  800cbe:	81 fa 07 10 00 00    	cmp    $0x1007,%edx
  800cc4:	0f 84 88 00 00 00    	je     800d52 <lwip_getsockopt_internal+0xf6>
  800cca:	7e 20                	jle    800cec <lwip_getsockopt_internal+0x90>
  800ccc:	81 fa 08 10 00 00    	cmp    $0x1008,%edx
  800cd2:	74 40                	je     800d14 <lwip_getsockopt_internal+0xb8>
  800cd4:	81 fa 0a 10 00 00    	cmp    $0x100a,%edx
  800cda:	75 b4                	jne    800c90 <lwip_getsockopt_internal+0x34>
      *(int*)optval = (udp_flags(sock->conn->pcb.udp) & UDP_FLAGS_NOCHKSUM) ? 1 : 0;
  800cdc:	8b 03                	mov    (%ebx),%eax
  800cde:	8b 40 08             	mov    0x8(%eax),%eax
  800ce1:	0f b6 40 10          	movzbl 0x10(%eax),%eax
  800ce5:	83 e0 01             	and    $0x1,%eax
  800ce8:	89 06                	mov    %eax,(%esi)
      break;
  800cea:	eb a4                	jmp    800c90 <lwip_getsockopt_internal+0x34>
  800cec:	8d 4a fe             	lea    -0x2(%edx),%ecx
  800cef:	83 f9 1e             	cmp    $0x1e,%ecx
  800cf2:	77 9c                	ja     800c90 <lwip_getsockopt_internal+0x34>
  800cf4:	b8 01 00 00 00       	mov    $0x1,%eax
  800cf9:	d3 e0                	shl    %cl,%eax
  800cfb:	a9 41 00 00 40       	test   $0x40000041,%eax
  800d00:	74 8e                	je     800c90 <lwip_getsockopt_internal+0x34>
      *(int*)optval = sock->conn->pcb.ip->so_options & optname;
  800d02:	8b 03                	mov    (%ebx),%eax
  800d04:	8b 40 08             	mov    0x8(%eax),%eax
  800d07:	0f b7 40 08          	movzwl 0x8(%eax),%eax
  800d0b:	21 c2                	and    %eax,%edx
  800d0d:	89 16                	mov    %edx,(%esi)
      break;
  800d0f:	e9 7c ff ff ff       	jmp    800c90 <lwip_getsockopt_internal+0x34>
      switch (NETCONNTYPE_GROUP(sock->conn->type)) {
  800d14:	8b 03                	mov    (%ebx),%eax
  800d16:	8b 00                	mov    (%eax),%eax
  800d18:	89 c2                	mov    %eax,%edx
  800d1a:	81 e2 f0 00 00 00    	and    $0xf0,%edx
  800d20:	83 fa 20             	cmp    $0x20,%edx
  800d23:	74 22                	je     800d47 <lwip_getsockopt_internal+0xeb>
  800d25:	83 fa 40             	cmp    $0x40,%edx
  800d28:	74 12                	je     800d3c <lwip_getsockopt_internal+0xe0>
        *(int*)optval = sock->conn->type;
  800d2a:	83 fa 10             	cmp    $0x10,%edx
  800d2d:	ba 01 00 00 00       	mov    $0x1,%edx
  800d32:	0f 44 c2             	cmove  %edx,%eax
  800d35:	89 06                	mov    %eax,(%esi)
  800d37:	e9 54 ff ff ff       	jmp    800c90 <lwip_getsockopt_internal+0x34>
        *(int*)optval = SOCK_RAW;
  800d3c:	c7 06 03 00 00 00    	movl   $0x3,(%esi)
        break;
  800d42:	e9 49 ff ff ff       	jmp    800c90 <lwip_getsockopt_internal+0x34>
        *(int*)optval = SOCK_DGRAM;
  800d47:	c7 06 02 00 00 00    	movl   $0x2,(%esi)
        break;
  800d4d:	e9 3e ff ff ff       	jmp    800c90 <lwip_getsockopt_internal+0x34>
      if (sock->err == 0) {
  800d52:	83 7b 10 00          	cmpl   $0x0,0x10(%ebx)
  800d56:	75 22                	jne    800d7a <lwip_getsockopt_internal+0x11e>
        sock_set_errno(sock, err_to_errno(sock->conn->err));
  800d58:	8b 03                	mov    (%ebx),%eax
  800d5a:	0f be 40 0c          	movsbl 0xc(%eax),%eax
  800d5e:	f7 d8                	neg    %eax
  800d60:	ba 05 00 00 00       	mov    $0x5,%edx
  800d65:	83 f8 0e             	cmp    $0xe,%eax
  800d68:	77 07                	ja     800d71 <lwip_getsockopt_internal+0x115>
  800d6a:	8b 14 85 20 15 81 00 	mov    0x811520(,%eax,4),%edx
  800d71:	89 53 10             	mov    %edx,0x10(%ebx)
  800d74:	89 15 e0 b1 b3 00    	mov    %edx,0xb3b1e0
      *(int *)optval = sock->err;
  800d7a:	8b 43 10             	mov    0x10(%ebx),%eax
  800d7d:	89 06                	mov    %eax,(%esi)
      sock->err = 0;
  800d7f:	c7 43 10 00 00 00 00 	movl   $0x0,0x10(%ebx)
      break;
  800d86:	e9 05 ff ff ff       	jmp    800c90 <lwip_getsockopt_internal+0x34>
  800d8b:	83 fa 01             	cmp    $0x1,%edx
  800d8e:	74 19                	je     800da9 <lwip_getsockopt_internal+0x14d>
  800d90:	83 fa 02             	cmp    $0x2,%edx
  800d93:	0f 85 f7 fe ff ff    	jne    800c90 <lwip_getsockopt_internal+0x34>
      *(int*)optval = sock->conn->pcb.ip->ttl;
  800d99:	8b 03                	mov    (%ebx),%eax
  800d9b:	8b 40 08             	mov    0x8(%eax),%eax
  800d9e:	0f b6 40 0b          	movzbl 0xb(%eax),%eax
  800da2:	89 06                	mov    %eax,(%esi)
      break;
  800da4:	e9 e7 fe ff ff       	jmp    800c90 <lwip_getsockopt_internal+0x34>
      *(int*)optval = sock->conn->pcb.ip->tos;
  800da9:	8b 03                	mov    (%ebx),%eax
  800dab:	8b 40 08             	mov    0x8(%eax),%eax
  800dae:	0f b6 40 0a          	movzbl 0xa(%eax),%eax
  800db2:	89 06                	mov    %eax,(%esi)
      break;
  800db4:	e9 d7 fe ff ff       	jmp    800c90 <lwip_getsockopt_internal+0x34>
  800db9:	83 fa 01             	cmp    $0x1,%edx
  800dbc:	74 1b                	je     800dd9 <lwip_getsockopt_internal+0x17d>
  800dbe:	83 fa 02             	cmp    $0x2,%edx
  800dc1:	0f 85 c9 fe ff ff    	jne    800c90 <lwip_getsockopt_internal+0x34>
      *(int*)optval = (int)sock->conn->pcb.tcp->keep_idle;
  800dc7:	8b 03                	mov    (%ebx),%eax
  800dc9:	8b 40 08             	mov    0x8(%eax),%eax
  800dcc:	8b 80 9c 00 00 00    	mov    0x9c(%eax),%eax
  800dd2:	89 06                	mov    %eax,(%esi)
      break;
  800dd4:	e9 b7 fe ff ff       	jmp    800c90 <lwip_getsockopt_internal+0x34>
      *(int*)optval = (sock->conn->pcb.tcp->flags & TF_NODELAY);
  800dd9:	8b 03                	mov    (%ebx),%eax
  800ddb:	8b 40 08             	mov    0x8(%eax),%eax
  800dde:	0f b6 40 20          	movzbl 0x20(%eax),%eax
  800de2:	83 e0 40             	and    $0x40,%eax
  800de5:	0f b6 c0             	movzbl %al,%eax
  800de8:	89 06                	mov    %eax,(%esi)
      break;
  800dea:	e9 a1 fe ff ff       	jmp    800c90 <lwip_getsockopt_internal+0x34>

00800def <lwip_setsockopt_internal>:
  return err ? -1 : 0;
}

static void
lwip_setsockopt_internal(void *arg)
{
  800def:	f3 0f 1e fb          	endbr32 
  800df3:	55                   	push   %ebp
  800df4:	89 e5                	mov    %esp,%ebp
  800df6:	53                   	push   %ebx
  800df7:	83 ec 04             	sub    $0x4,%esp
  800dfa:	8b 45 08             	mov    0x8(%ebp),%eax
#endif /* LWIP_DEBUG */
  int level, optname;
  const void *optval;
  struct lwip_setgetsockopt_data *data;

  LWIP_ASSERT("arg != NULL", arg != NULL);
  800dfd:	85 c0                	test   %eax,%eax
  800dff:	74 35                	je     800e36 <lwip_setsockopt_internal+0x47>

  data = (struct lwip_setgetsockopt_data*)arg;
  sock = data->sock;
  800e01:	8b 18                	mov    (%eax),%ebx
#ifdef LWIP_DEBUG
  s = data->s;
#endif /* LWIP_DEBUG */
  level = data->level;
  800e03:	8b 50 08             	mov    0x8(%eax),%edx
  optname = data->optname;
  800e06:	8b 48 0c             	mov    0xc(%eax),%ecx
  optval = data->optval;
  800e09:	8b 40 10             	mov    0x10(%eax),%eax

  switch (level) {
  800e0c:	83 fa 06             	cmp    $0x6,%edx
  800e0f:	0f 84 aa 00 00 00    	je     800ebf <lwip_setsockopt_internal+0xd0>
  800e15:	81 fa ff 0f 00 00    	cmp    $0xfff,%edx
  800e1b:	74 30                	je     800e4d <lwip_setsockopt_internal+0x5e>
  800e1d:	85 d2                	test   %edx,%edx
  800e1f:	74 76                	je     800e97 <lwip_setsockopt_internal+0xa8>
      break;
    }  /* switch (optname) */
    break;
#endif /* LWIP_UDP */
  }  /* switch (level) */
  sys_sem_signal(sock->conn->op_completed);
  800e21:	83 ec 0c             	sub    $0xc,%esp
  800e24:	8b 03                	mov    (%ebx),%eax
  800e26:	ff 70 10             	pushl  0x10(%eax)
  800e29:	e8 3f 95 00 00       	call   80a36d <sys_sem_signal>
}
  800e2e:	83 c4 10             	add    $0x10,%esp
  800e31:	8b 5d fc             	mov    -0x4(%ebp),%ebx
  800e34:	c9                   	leave  
  800e35:	c3                   	ret    
  LWIP_ASSERT("arg != NULL", arg != NULL);
  800e36:	83 ec 04             	sub    $0x4,%esp
  800e39:	68 66 14 81 00       	push   $0x811466
  800e3e:	68 ae 06 00 00       	push   $0x6ae
  800e43:	68 4f 14 81 00       	push   $0x81144f
  800e48:	e8 ea da 00 00       	call   80e937 <_panic>
  800e4d:	83 f9 20             	cmp    $0x20,%ecx
  800e50:	74 0d                	je     800e5f <lwip_setsockopt_internal+0x70>
  800e52:	81 f9 0a 10 00 00    	cmp    $0x100a,%ecx
  800e58:	74 22                	je     800e7c <lwip_setsockopt_internal+0x8d>
  800e5a:	83 f9 08             	cmp    $0x8,%ecx
  800e5d:	75 c2                	jne    800e21 <lwip_setsockopt_internal+0x32>
      if (*(int*)optval) {
  800e5f:	83 38 00             	cmpl   $0x0,(%eax)
  800e62:	74 0b                	je     800e6f <lwip_setsockopt_internal+0x80>
        sock->conn->pcb.ip->so_options |= optname;
  800e64:	8b 03                	mov    (%ebx),%eax
  800e66:	8b 40 08             	mov    0x8(%eax),%eax
  800e69:	66 09 48 08          	or     %cx,0x8(%eax)
  800e6d:	eb b2                	jmp    800e21 <lwip_setsockopt_internal+0x32>
        sock->conn->pcb.ip->so_options &= ~optname;
  800e6f:	8b 03                	mov    (%ebx),%eax
  800e71:	8b 40 08             	mov    0x8(%eax),%eax
  800e74:	f7 d1                	not    %ecx
  800e76:	66 21 48 08          	and    %cx,0x8(%eax)
  800e7a:	eb a5                	jmp    800e21 <lwip_setsockopt_internal+0x32>
      if (*(int*)optval) {
  800e7c:	83 38 00             	cmpl   $0x0,(%eax)
  800e7f:	74 0b                	je     800e8c <lwip_setsockopt_internal+0x9d>
        udp_setflags(sock->conn->pcb.udp, udp_flags(sock->conn->pcb.udp) | UDP_FLAGS_NOCHKSUM);
  800e81:	8b 03                	mov    (%ebx),%eax
  800e83:	8b 40 08             	mov    0x8(%eax),%eax
  800e86:	80 48 10 01          	orb    $0x1,0x10(%eax)
  800e8a:	eb 95                	jmp    800e21 <lwip_setsockopt_internal+0x32>
        udp_setflags(sock->conn->pcb.udp, udp_flags(sock->conn->pcb.udp) & ~UDP_FLAGS_NOCHKSUM);
  800e8c:	8b 03                	mov    (%ebx),%eax
  800e8e:	8b 40 08             	mov    0x8(%eax),%eax
  800e91:	80 60 10 fe          	andb   $0xfe,0x10(%eax)
  800e95:	eb 8a                	jmp    800e21 <lwip_setsockopt_internal+0x32>
  800e97:	83 f9 01             	cmp    $0x1,%ecx
  800e9a:	74 14                	je     800eb0 <lwip_setsockopt_internal+0xc1>
  800e9c:	83 f9 02             	cmp    $0x2,%ecx
  800e9f:	75 80                	jne    800e21 <lwip_setsockopt_internal+0x32>
      sock->conn->pcb.ip->ttl = (u8_t)(*(int*)optval);
  800ea1:	8b 13                	mov    (%ebx),%edx
  800ea3:	8b 52 08             	mov    0x8(%edx),%edx
  800ea6:	8b 00                	mov    (%eax),%eax
  800ea8:	88 42 0b             	mov    %al,0xb(%edx)
      break;
  800eab:	e9 71 ff ff ff       	jmp    800e21 <lwip_setsockopt_internal+0x32>
      sock->conn->pcb.ip->tos = (u8_t)(*(int*)optval);
  800eb0:	8b 13                	mov    (%ebx),%edx
  800eb2:	8b 52 08             	mov    0x8(%edx),%edx
  800eb5:	8b 00                	mov    (%eax),%eax
  800eb7:	88 42 0a             	mov    %al,0xa(%edx)
      break;
  800eba:	e9 62 ff ff ff       	jmp    800e21 <lwip_setsockopt_internal+0x32>
  800ebf:	83 f9 01             	cmp    $0x1,%ecx
  800ec2:	74 1b                	je     800edf <lwip_setsockopt_internal+0xf0>
  800ec4:	83 f9 02             	cmp    $0x2,%ecx
  800ec7:	0f 85 54 ff ff ff    	jne    800e21 <lwip_setsockopt_internal+0x32>
      sock->conn->pcb.tcp->keep_idle = (u32_t)(*(int*)optval);
  800ecd:	8b 13                	mov    (%ebx),%edx
  800ecf:	8b 52 08             	mov    0x8(%edx),%edx
  800ed2:	8b 00                	mov    (%eax),%eax
  800ed4:	89 82 9c 00 00 00    	mov    %eax,0x9c(%edx)
      break;
  800eda:	e9 42 ff ff ff       	jmp    800e21 <lwip_setsockopt_internal+0x32>
      if (*(int*)optval) {
  800edf:	83 38 00             	cmpl   $0x0,(%eax)
  800ee2:	74 0e                	je     800ef2 <lwip_setsockopt_internal+0x103>
        sock->conn->pcb.tcp->flags |= TF_NODELAY;
  800ee4:	8b 03                	mov    (%ebx),%eax
  800ee6:	8b 40 08             	mov    0x8(%eax),%eax
  800ee9:	80 48 20 40          	orb    $0x40,0x20(%eax)
  800eed:	e9 2f ff ff ff       	jmp    800e21 <lwip_setsockopt_internal+0x32>
        sock->conn->pcb.tcp->flags &= ~TF_NODELAY;
  800ef2:	8b 03                	mov    (%ebx),%eax
  800ef4:	8b 40 08             	mov    0x8(%eax),%eax
  800ef7:	80 60 20 bf          	andb   $0xbf,0x20(%eax)
  800efb:	e9 21 ff ff ff       	jmp    800e21 <lwip_setsockopt_internal+0x32>

00800f00 <lwip_socket_init>:
{
  800f00:	f3 0f 1e fb          	endbr32 
  800f04:	55                   	push   %ebp
  800f05:	89 e5                	mov    %esp,%ebp
  800f07:	83 ec 14             	sub    $0x14,%esp
  socksem   = sys_sem_new(1);
  800f0a:	6a 01                	push   $0x1
  800f0c:	e8 8f 91 00 00       	call   80a0a0 <sys_sem_new>
  800f11:	a3 44 50 81 00       	mov    %eax,0x815044
  selectsem = sys_sem_new(1);
  800f16:	c7 04 24 01 00 00 00 	movl   $0x1,(%esp)
  800f1d:	e8 7e 91 00 00       	call   80a0a0 <sys_sem_new>
  800f22:	a3 40 50 81 00       	mov    %eax,0x815040
}
  800f27:	83 c4 10             	add    $0x10,%esp
  800f2a:	c9                   	leave  
  800f2b:	c3                   	ret    

00800f2c <lwip_accept>:
{
  800f2c:	f3 0f 1e fb          	endbr32 
  800f30:	55                   	push   %ebp
  800f31:	89 e5                	mov    %esp,%ebp
  800f33:	57                   	push   %edi
  800f34:	56                   	push   %esi
  800f35:	53                   	push   %ebx
  800f36:	83 ec 3c             	sub    $0x3c,%esp
  800f39:	8b 7d 10             	mov    0x10(%ebp),%edi
  sock = get_socket(s);
  800f3c:	8b 45 08             	mov    0x8(%ebp),%eax
  800f3f:	e8 de f8 ff ff       	call   800822 <get_socket>
  if (!sock)
  800f44:	85 c0                	test   %eax,%eax
  800f46:	0f 84 8c 01 00 00    	je     8010d8 <lwip_accept+0x1ac>
  800f4c:	89 c6                	mov    %eax,%esi
  newconn = netconn_accept(sock->conn);
  800f4e:	83 ec 0c             	sub    $0xc,%esp
  800f51:	ff 30                	pushl  (%eax)
  800f53:	e8 c8 a2 00 00       	call   80b220 <netconn_accept>
  800f58:	89 c3                	mov    %eax,%ebx
  if (!newconn) {
  800f5a:	83 c4 10             	add    $0x10,%esp
  800f5d:	85 c0                	test   %eax,%eax
  800f5f:	0f 84 de 00 00 00    	je     801043 <lwip_accept+0x117>
  err = netconn_peer(newconn, &naddr, &port);
  800f65:	6a 00                	push   $0x0
  800f67:	8d 45 e2             	lea    -0x1e(%ebp),%eax
  800f6a:	50                   	push   %eax
  800f6b:	8d 45 e4             	lea    -0x1c(%ebp),%eax
  800f6e:	50                   	push   %eax
  800f6f:	53                   	push   %ebx
  800f70:	e8 e1 a0 00 00       	call   80b056 <netconn_getaddr>
  800f75:	88 45 c7             	mov    %al,-0x39(%ebp)
  if (err != ERR_OK) {
  800f78:	83 c4 10             	add    $0x10,%esp
  800f7b:	84 c0                	test   %al,%al
  800f7d:	0f 85 e9 00 00 00    	jne    80106c <lwip_accept+0x140>
  memset(&sin, 0, sizeof(sin));
  800f83:	83 ec 04             	sub    $0x4,%esp
  800f86:	6a 10                	push   $0x10
  800f88:	6a 00                	push   $0x0
  800f8a:	8d 45 d0             	lea    -0x30(%ebp),%eax
  800f8d:	50                   	push   %eax
  800f8e:	e8 47 e2 00 00       	call   80f1da <memset>
  sin.sin_len = sizeof(sin);
  800f93:	c6 45 d0 10          	movb   $0x10,-0x30(%ebp)
  sin.sin_family = AF_INET;
  800f97:	c6 45 d1 02          	movb   $0x2,-0x2f(%ebp)
  sin.sin_port = htons(port);
  800f9b:	0f b7 45 e2          	movzwl -0x1e(%ebp),%eax
  800f9f:	89 04 24             	mov    %eax,(%esp)
  800fa2:	e8 ac 69 00 00       	call   807953 <htons>
  800fa7:	66 89 45 d2          	mov    %ax,-0x2e(%ebp)
  sin.sin_addr.s_addr = naddr.addr;
  800fab:	8b 45 e4             	mov    -0x1c(%ebp),%eax
  800fae:	89 45 d4             	mov    %eax,-0x2c(%ebp)
  if (*addrlen > sizeof(sin))
  800fb1:	83 c4 10             	add    $0x10,%esp
  800fb4:	83 3f 10             	cmpl   $0x10,(%edi)
  800fb7:	76 06                	jbe    800fbf <lwip_accept+0x93>
    *addrlen = sizeof(sin);
  800fb9:	c7 07 10 00 00 00    	movl   $0x10,(%edi)
  SMEMCPY(addr, &sin, *addrlen);
  800fbf:	83 ec 04             	sub    $0x4,%esp
  800fc2:	ff 37                	pushl  (%edi)
  800fc4:	8d 45 d0             	lea    -0x30(%ebp),%eax
  800fc7:	50                   	push   %eax
  800fc8:	ff 75 0c             	pushl  0xc(%ebp)
  800fcb:	e8 bc e2 00 00       	call   80f28c <memcpy>
  newsock = alloc_socket(newconn);
  800fd0:	89 d8                	mov    %ebx,%eax
  800fd2:	e8 dd fb ff ff       	call   800bb4 <alloc_socket>
  800fd7:	89 c7                	mov    %eax,%edi
  if (newsock == -1) {
  800fd9:	83 c4 10             	add    $0x10,%esp
  800fdc:	83 f8 ff             	cmp    $0xffffffff,%eax
  800fdf:	0f 84 ba 00 00 00    	je     80109f <lwip_accept+0x173>
  LWIP_ASSERT("invalid socket index", (newsock >= 0) && (newsock < NUM_SOCKETS));
  800fe5:	83 f8 1f             	cmp    $0x1f,%eax
  800fe8:	0f 87 d3 00 00 00    	ja     8010c1 <lwip_accept+0x195>
  newconn->callback = event_callback;
  800fee:	c7 43 2c 11 0a 80 00 	movl   $0x800a11,0x2c(%ebx)
  sys_sem_wait(socksem);
  800ff5:	83 ec 0c             	sub    $0xc,%esp
  800ff8:	ff 35 44 50 81 00    	pushl  0x815044
  800ffe:	e8 1d 43 00 00       	call   805320 <sys_sem_wait>
  nsock->rcvevent += -1 - newconn->socket;
  801003:	8d 04 bf             	lea    (%edi,%edi,4),%eax
  801006:	0f b7 53 1c          	movzwl 0x1c(%ebx),%edx
  80100a:	f7 d2                	not    %edx
  80100c:	66 01 14 85 6a 50 81 	add    %dx,0x81506a(,%eax,4)
  801013:	00 
  newconn->socket = newsock;
  801014:	89 7b 1c             	mov    %edi,0x1c(%ebx)
  sys_sem_signal(socksem);
  801017:	83 c4 04             	add    $0x4,%esp
  80101a:	ff 35 44 50 81 00    	pushl  0x815044
  801020:	e8 48 93 00 00       	call   80a36d <sys_sem_signal>
  sock_set_errno(sock, 0);
  801025:	c7 46 10 00 00 00 00 	movl   $0x0,0x10(%esi)
  80102c:	c7 05 e0 b1 b3 00 00 	movl   $0x0,0xb3b1e0
  801033:	00 00 00 
  return newsock;
  801036:	83 c4 10             	add    $0x10,%esp
}
  801039:	89 f8                	mov    %edi,%eax
  80103b:	8d 65 f4             	lea    -0xc(%ebp),%esp
  80103e:	5b                   	pop    %ebx
  80103f:	5e                   	pop    %esi
  801040:	5f                   	pop    %edi
  801041:	5d                   	pop    %ebp
  801042:	c3                   	ret    
    sock_set_errno(sock, err_to_errno(sock->conn->err));
  801043:	8b 06                	mov    (%esi),%eax
  801045:	0f be 40 0c          	movsbl 0xc(%eax),%eax
  801049:	f7 d8                	neg    %eax
  80104b:	ba 05 00 00 00       	mov    $0x5,%edx
  801050:	83 f8 0e             	cmp    $0xe,%eax
  801053:	77 07                	ja     80105c <lwip_accept+0x130>
  801055:	8b 14 85 20 15 81 00 	mov    0x811520(,%eax,4),%edx
  80105c:	89 56 10             	mov    %edx,0x10(%esi)
  80105f:	89 15 e0 b1 b3 00    	mov    %edx,0xb3b1e0
    return -1;
  801065:	bf ff ff ff ff       	mov    $0xffffffff,%edi
  80106a:	eb cd                	jmp    801039 <lwip_accept+0x10d>
    netconn_delete(newconn);
  80106c:	83 ec 0c             	sub    $0xc,%esp
  80106f:	53                   	push   %ebx
  801070:	e8 71 9f 00 00       	call   80afe6 <netconn_delete>
    sock_set_errno(sock, err_to_errno(err));
  801075:	0f be 45 c7          	movsbl -0x39(%ebp),%eax
  801079:	f7 d8                	neg    %eax
  80107b:	83 c4 10             	add    $0x10,%esp
  80107e:	ba 05 00 00 00       	mov    $0x5,%edx
  801083:	83 f8 0e             	cmp    $0xe,%eax
  801086:	77 07                	ja     80108f <lwip_accept+0x163>
  801088:	8b 14 85 20 15 81 00 	mov    0x811520(,%eax,4),%edx
  80108f:	89 56 10             	mov    %edx,0x10(%esi)
  801092:	89 15 e0 b1 b3 00    	mov    %edx,0xb3b1e0
    return -1;
  801098:	bf ff ff ff ff       	mov    $0xffffffff,%edi
  80109d:	eb 9a                	jmp    801039 <lwip_accept+0x10d>
    netconn_delete(newconn);
  80109f:	83 ec 0c             	sub    $0xc,%esp
  8010a2:	53                   	push   %ebx
  8010a3:	e8 3e 9f 00 00       	call   80afe6 <netconn_delete>
    sock_set_errno(sock, ENFILE);
  8010a8:	c7 46 10 17 00 00 00 	movl   $0x17,0x10(%esi)
  8010af:	c7 05 e0 b1 b3 00 17 	movl   $0x17,0xb3b1e0
  8010b6:	00 00 00 
    return -1;
  8010b9:	83 c4 10             	add    $0x10,%esp
  8010bc:	e9 78 ff ff ff       	jmp    801039 <lwip_accept+0x10d>
  LWIP_ASSERT("invalid socket index", (newsock >= 0) && (newsock < NUM_SOCKETS));
  8010c1:	83 ec 04             	sub    $0x4,%esp
  8010c4:	68 72 14 81 00       	push   $0x811472
  8010c9:	68 25 01 00 00       	push   $0x125
  8010ce:	68 4f 14 81 00       	push   $0x81144f
  8010d3:	e8 5f d8 00 00       	call   80e937 <_panic>
    return -1;
  8010d8:	bf ff ff ff ff       	mov    $0xffffffff,%edi
  8010dd:	e9 57 ff ff ff       	jmp    801039 <lwip_accept+0x10d>

008010e2 <lwip_bind>:
{
  8010e2:	f3 0f 1e fb          	endbr32 
  8010e6:	55                   	push   %ebp
  8010e7:	89 e5                	mov    %esp,%ebp
  8010e9:	56                   	push   %esi
  8010ea:	53                   	push   %ebx
  8010eb:	83 ec 10             	sub    $0x10,%esp
  8010ee:	8b 75 0c             	mov    0xc(%ebp),%esi
  sock = get_socket(s);
  8010f1:	8b 45 08             	mov    0x8(%ebp),%eax
  8010f4:	e8 29 f7 ff ff       	call   800822 <get_socket>
  if (!sock)
  8010f9:	85 c0                	test   %eax,%eax
  8010fb:	0f 84 94 00 00 00    	je     801195 <lwip_bind+0xb3>
  801101:	89 c3                	mov    %eax,%ebx
  LWIP_ERROR("lwip_bind: invalid address", ((namelen == sizeof(struct sockaddr_in)) &&
  801103:	83 7d 10 10          	cmpl   $0x10,0x10(%ebp)
  801107:	75 4f                	jne    801158 <lwip_bind+0x76>
  801109:	80 7e 01 02          	cmpb   $0x2,0x1(%esi)
  80110d:	75 49                	jne    801158 <lwip_bind+0x76>
  local_addr.addr = ((struct sockaddr_in *)name)->sin_addr.s_addr;
  80110f:	8b 46 04             	mov    0x4(%esi),%eax
  801112:	89 45 f4             	mov    %eax,-0xc(%ebp)
  err = netconn_bind(sock->conn, &local_addr, ntohs(local_port));
  801115:	83 ec 0c             	sub    $0xc,%esp
  801118:	0f b7 46 02          	movzwl 0x2(%esi),%eax
  80111c:	50                   	push   %eax
  80111d:	e8 42 68 00 00       	call   807964 <ntohs>
  801122:	83 c4 0c             	add    $0xc,%esp
  801125:	0f b7 c0             	movzwl %ax,%eax
  801128:	50                   	push   %eax
  801129:	8d 45 f4             	lea    -0xc(%ebp),%eax
  80112c:	50                   	push   %eax
  80112d:	ff 33                	pushl  (%ebx)
  80112f:	e8 b2 9f 00 00       	call   80b0e6 <netconn_bind>
  if (err != ERR_OK) {
  801134:	83 c4 10             	add    $0x10,%esp
  801137:	84 c0                	test   %al,%al
  801139:	75 34                	jne    80116f <lwip_bind+0x8d>
  sock_set_errno(sock, 0);
  80113b:	c7 43 10 00 00 00 00 	movl   $0x0,0x10(%ebx)
  801142:	c7 05 e0 b1 b3 00 00 	movl   $0x0,0xb3b1e0
  801149:	00 00 00 
  return 0;
  80114c:	b8 00 00 00 00       	mov    $0x0,%eax
}
  801151:	8d 65 f8             	lea    -0x8(%ebp),%esp
  801154:	5b                   	pop    %ebx
  801155:	5e                   	pop    %esi
  801156:	5d                   	pop    %ebp
  801157:	c3                   	ret    
  LWIP_ERROR("lwip_bind: invalid address", ((namelen == sizeof(struct sockaddr_in)) &&
  801158:	83 ec 04             	sub    $0x4,%esp
  80115b:	68 87 14 81 00       	push   $0x811487
  801160:	68 48 01 00 00       	push   $0x148
  801165:	68 4f 14 81 00       	push   $0x81144f
  80116a:	e8 c8 d7 00 00       	call   80e937 <_panic>
    sock_set_errno(sock, err_to_errno(err));
  80116f:	0f be c0             	movsbl %al,%eax
  801172:	f7 d8                	neg    %eax
  801174:	ba 05 00 00 00       	mov    $0x5,%edx
  801179:	83 f8 0e             	cmp    $0xe,%eax
  80117c:	77 07                	ja     801185 <lwip_bind+0xa3>
  80117e:	8b 14 85 20 15 81 00 	mov    0x811520(,%eax,4),%edx
  801185:	89 53 10             	mov    %edx,0x10(%ebx)
  801188:	89 15 e0 b1 b3 00    	mov    %edx,0xb3b1e0
    return -1;
  80118e:	b8 ff ff ff ff       	mov    $0xffffffff,%eax
  801193:	eb bc                	jmp    801151 <lwip_bind+0x6f>
    return -1;
  801195:	b8 ff ff ff ff       	mov    $0xffffffff,%eax
  80119a:	eb b5                	jmp    801151 <lwip_bind+0x6f>

0080119c <lwip_close>:
{
  80119c:	f3 0f 1e fb          	endbr32 
  8011a0:	55                   	push   %ebp
  8011a1:	89 e5                	mov    %esp,%ebp
  8011a3:	53                   	push   %ebx
  8011a4:	83 ec 04             	sub    $0x4,%esp
  sock = get_socket(s);
  8011a7:	8b 45 08             	mov    0x8(%ebp),%eax
  8011aa:	e8 73 f6 ff ff       	call   800822 <get_socket>
  if (!sock) {
  8011af:	85 c0                	test   %eax,%eax
  8011b1:	74 6f                	je     801222 <lwip_close+0x86>
  8011b3:	89 c3                	mov    %eax,%ebx
  netconn_delete(sock->conn);
  8011b5:	83 ec 0c             	sub    $0xc,%esp
  8011b8:	ff 30                	pushl  (%eax)
  8011ba:	e8 27 9e 00 00       	call   80afe6 <netconn_delete>
  sys_sem_wait(socksem);
  8011bf:	83 c4 04             	add    $0x4,%esp
  8011c2:	ff 35 44 50 81 00    	pushl  0x815044
  8011c8:	e8 53 41 00 00       	call   805320 <sys_sem_wait>
  if (sock->lastdata) {
  8011cd:	8b 43 04             	mov    0x4(%ebx),%eax
  8011d0:	83 c4 10             	add    $0x10,%esp
  8011d3:	85 c0                	test   %eax,%eax
  8011d5:	74 0c                	je     8011e3 <lwip_close+0x47>
    netbuf_delete(sock->lastdata);
  8011d7:	83 ec 0c             	sub    $0xc,%esp
  8011da:	50                   	push   %eax
  8011db:	e8 1b 14 00 00       	call   8025fb <netbuf_delete>
  8011e0:	83 c4 10             	add    $0x10,%esp
  sock->lastdata   = NULL;
  8011e3:	c7 43 04 00 00 00 00 	movl   $0x0,0x4(%ebx)
  sock->lastoffset = 0;
  8011ea:	66 c7 43 08 00 00    	movw   $0x0,0x8(%ebx)
  sock->conn       = NULL;
  8011f0:	c7 03 00 00 00 00    	movl   $0x0,(%ebx)
  sock_set_errno(sock, 0);
  8011f6:	c7 43 10 00 00 00 00 	movl   $0x0,0x10(%ebx)
  8011fd:	c7 05 e0 b1 b3 00 00 	movl   $0x0,0xb3b1e0
  801204:	00 00 00 
  sys_sem_signal(socksem);
  801207:	83 ec 0c             	sub    $0xc,%esp
  80120a:	ff 35 44 50 81 00    	pushl  0x815044
  801210:	e8 58 91 00 00       	call   80a36d <sys_sem_signal>
  return 0;
  801215:	83 c4 10             	add    $0x10,%esp
  801218:	b8 00 00 00 00       	mov    $0x0,%eax
}
  80121d:	8b 5d fc             	mov    -0x4(%ebp),%ebx
  801220:	c9                   	leave  
  801221:	c3                   	ret    
    return -1;
  801222:	b8 ff ff ff ff       	mov    $0xffffffff,%eax
  801227:	eb f4                	jmp    80121d <lwip_close+0x81>

00801229 <lwip_connect>:
{
  801229:	f3 0f 1e fb          	endbr32 
  80122d:	55                   	push   %ebp
  80122e:	89 e5                	mov    %esp,%ebp
  801230:	56                   	push   %esi
  801231:	53                   	push   %ebx
  801232:	83 ec 10             	sub    $0x10,%esp
  801235:	8b 75 0c             	mov    0xc(%ebp),%esi
  sock = get_socket(s);
  801238:	8b 45 08             	mov    0x8(%ebp),%eax
  80123b:	e8 e2 f5 ff ff       	call   800822 <get_socket>
  if (!sock)
  801240:	85 c0                	test   %eax,%eax
  801242:	0f 84 94 00 00 00    	je     8012dc <lwip_connect+0xb3>
  801248:	89 c3                	mov    %eax,%ebx
  LWIP_ERROR("lwip_connect: invalid address", ((namelen == sizeof(struct sockaddr_in)) &&
  80124a:	83 7d 10 10          	cmpl   $0x10,0x10(%ebp)
  80124e:	75 4f                	jne    80129f <lwip_connect+0x76>
  801250:	80 7e 01 02          	cmpb   $0x2,0x1(%esi)
  801254:	75 49                	jne    80129f <lwip_connect+0x76>
    remote_addr.addr = ((struct sockaddr_in *)name)->sin_addr.s_addr;
  801256:	8b 46 04             	mov    0x4(%esi),%eax
  801259:	89 45 f4             	mov    %eax,-0xc(%ebp)
    err = netconn_connect(sock->conn, &remote_addr, ntohs(remote_port));
  80125c:	83 ec 0c             	sub    $0xc,%esp
  80125f:	0f b7 46 02          	movzwl 0x2(%esi),%eax
  801263:	50                   	push   %eax
  801264:	e8 fb 66 00 00       	call   807964 <ntohs>
  801269:	83 c4 0c             	add    $0xc,%esp
  80126c:	0f b7 c0             	movzwl %ax,%eax
  80126f:	50                   	push   %eax
  801270:	8d 45 f4             	lea    -0xc(%ebp),%eax
  801273:	50                   	push   %eax
  801274:	ff 33                	pushl  (%ebx)
  801276:	e8 c0 9e 00 00       	call   80b13b <netconn_connect>
  if (err != ERR_OK) {
  80127b:	83 c4 10             	add    $0x10,%esp
  80127e:	84 c0                	test   %al,%al
  801280:	75 34                	jne    8012b6 <lwip_connect+0x8d>
  sock_set_errno(sock, 0);
  801282:	c7 43 10 00 00 00 00 	movl   $0x0,0x10(%ebx)
  801289:	c7 05 e0 b1 b3 00 00 	movl   $0x0,0xb3b1e0
  801290:	00 00 00 
  return 0;
  801293:	b8 00 00 00 00       	mov    $0x0,%eax
}
  801298:	8d 65 f8             	lea    -0x8(%ebp),%esp
  80129b:	5b                   	pop    %ebx
  80129c:	5e                   	pop    %esi
  80129d:	5d                   	pop    %ebp
  80129e:	c3                   	ret    
  LWIP_ERROR("lwip_connect: invalid address", ((namelen == sizeof(struct sockaddr_in)) &&
  80129f:	83 ec 04             	sub    $0x4,%esp
  8012a2:	68 a2 14 81 00       	push   $0x8114a2
  8012a7:	68 84 01 00 00       	push   $0x184
  8012ac:	68 4f 14 81 00       	push   $0x81144f
  8012b1:	e8 81 d6 00 00       	call   80e937 <_panic>
    sock_set_errno(sock, err_to_errno(err));
  8012b6:	0f be c0             	movsbl %al,%eax
  8012b9:	f7 d8                	neg    %eax
  8012bb:	ba 05 00 00 00       	mov    $0x5,%edx
  8012c0:	83 f8 0e             	cmp    $0xe,%eax
  8012c3:	77 07                	ja     8012cc <lwip_connect+0xa3>
  8012c5:	8b 14 85 20 15 81 00 	mov    0x811520(,%eax,4),%edx
  8012cc:	89 53 10             	mov    %edx,0x10(%ebx)
  8012cf:	89 15 e0 b1 b3 00    	mov    %edx,0xb3b1e0
    return -1;
  8012d5:	b8 ff ff ff ff       	mov    $0xffffffff,%eax
  8012da:	eb bc                	jmp    801298 <lwip_connect+0x6f>
    return -1;
  8012dc:	b8 ff ff ff ff       	mov    $0xffffffff,%eax
  8012e1:	eb b5                	jmp    801298 <lwip_connect+0x6f>

008012e3 <lwip_listen>:
{
  8012e3:	f3 0f 1e fb          	endbr32 
  8012e7:	55                   	push   %ebp
  8012e8:	89 e5                	mov    %esp,%ebp
  8012ea:	56                   	push   %esi
  8012eb:	53                   	push   %ebx
  8012ec:	8b 5d 0c             	mov    0xc(%ebp),%ebx
  sock = get_socket(s);
  8012ef:	8b 45 08             	mov    0x8(%ebp),%eax
  8012f2:	e8 2b f5 ff ff       	call   800822 <get_socket>
  if (!sock)
  8012f7:	85 c0                	test   %eax,%eax
  8012f9:	74 6f                	je     80136a <lwip_listen+0x87>
  8012fb:	89 c6                	mov    %eax,%esi
  8012fd:	81 fb ff 00 00 00    	cmp    $0xff,%ebx
  801303:	b8 ff 00 00 00       	mov    $0xff,%eax
  801308:	0f 4f d8             	cmovg  %eax,%ebx
  err = netconn_listen_with_backlog(sock->conn, backlog);
  80130b:	83 ec 08             	sub    $0x8,%esp
  80130e:	85 db                	test   %ebx,%ebx
  801310:	b8 00 00 00 00       	mov    $0x0,%eax
  801315:	0f 48 d8             	cmovs  %eax,%ebx
  801318:	53                   	push   %ebx
  801319:	ff 36                	pushl  (%esi)
  80131b:	e8 b8 9e 00 00       	call   80b1d8 <netconn_listen_with_backlog>
  if (err != ERR_OK) {
  801320:	83 c4 10             	add    $0x10,%esp
  801323:	84 c0                	test   %al,%al
  801325:	75 1d                	jne    801344 <lwip_listen+0x61>
  sock_set_errno(sock, 0);
  801327:	c7 46 10 00 00 00 00 	movl   $0x0,0x10(%esi)
  80132e:	c7 05 e0 b1 b3 00 00 	movl   $0x0,0xb3b1e0
  801335:	00 00 00 
  return 0;
  801338:	b8 00 00 00 00       	mov    $0x0,%eax
}
  80133d:	8d 65 f8             	lea    -0x8(%ebp),%esp
  801340:	5b                   	pop    %ebx
  801341:	5e                   	pop    %esi
  801342:	5d                   	pop    %ebp
  801343:	c3                   	ret    
    sock_set_errno(sock, err_to_errno(err));
  801344:	0f be c0             	movsbl %al,%eax
  801347:	f7 d8                	neg    %eax
  801349:	ba 05 00 00 00       	mov    $0x5,%edx
  80134e:	83 f8 0e             	cmp    $0xe,%eax
  801351:	77 07                	ja     80135a <lwip_listen+0x77>
  801353:	8b 14 85 20 15 81 00 	mov    0x811520(,%eax,4),%edx
  80135a:	89 56 10             	mov    %edx,0x10(%esi)
  80135d:	89 15 e0 b1 b3 00    	mov    %edx,0xb3b1e0
    return -1;
  801363:	b8 ff ff ff ff       	mov    $0xffffffff,%eax
  801368:	eb d3                	jmp    80133d <lwip_listen+0x5a>
    return -1;
  80136a:	b8 ff ff ff ff       	mov    $0xffffffff,%eax
  80136f:	eb cc                	jmp    80133d <lwip_listen+0x5a>

00801371 <lwip_recvfrom>:
{
  801371:	f3 0f 1e fb          	endbr32 
  801375:	55                   	push   %ebp
  801376:	89 e5                	mov    %esp,%ebp
  801378:	57                   	push   %edi
  801379:	56                   	push   %esi
  80137a:	53                   	push   %ebx
  80137b:	83 ec 3c             	sub    $0x3c,%esp
  sock = get_socket(s);
  80137e:	8b 45 08             	mov    0x8(%ebp),%eax
  801381:	e8 9c f4 ff ff       	call   800822 <get_socket>
  if (!sock)
  801386:	85 c0                	test   %eax,%eax
  801388:	0f 84 22 02 00 00    	je     8015b0 <lwip_recvfrom+0x23f>
  80138e:	89 c7                	mov    %eax,%edi
  u16_t               buflen, copylen, off = 0;
  801390:	66 c7 45 c4 00 00    	movw   $0x0,-0x3c(%ebp)
      if (((flags & MSG_DONTWAIT) || (sock->flags & O_NONBLOCK)) && !sock->rcvevent) {
  801396:	8b 45 14             	mov    0x14(%ebp),%eax
  801399:	83 e0 08             	and    $0x8,%eax
  80139c:	89 45 b8             	mov    %eax,-0x48(%ebp)
  80139f:	e9 a7 00 00 00       	jmp    80144b <lwip_recvfrom+0xda>
  8013a4:	83 7d b8 00          	cmpl   $0x0,-0x48(%ebp)
  8013a8:	75 06                	jne    8013b0 <lwip_recvfrom+0x3f>
  8013aa:	f6 47 0f 08          	testb  $0x8,0xf(%edi)
  8013ae:	74 07                	je     8013b7 <lwip_recvfrom+0x46>
  8013b0:	66 83 7f 0a 00       	cmpw   $0x0,0xa(%edi)
  8013b5:	74 56                	je     80140d <lwip_recvfrom+0x9c>
      sock->lastdata = buf = netconn_recv(sock->conn);
  8013b7:	83 ec 0c             	sub    $0xc,%esp
  8013ba:	ff 37                	pushl  (%edi)
  8013bc:	e8 d5 9e 00 00       	call   80b296 <netconn_recv>
  8013c1:	89 c6                	mov    %eax,%esi
  8013c3:	89 47 04             	mov    %eax,0x4(%edi)
      if (!buf) {
  8013c6:	83 c4 10             	add    $0x10,%esp
  8013c9:	85 c0                	test   %eax,%eax
  8013cb:	0f 85 85 00 00 00    	jne    801456 <lwip_recvfrom+0xe5>
        sock_set_errno(sock, (((sock->conn->pcb.ip!=NULL) && (sock->conn->err==ERR_OK))?ETIMEDOUT:err_to_errno(sock->conn->err)));
  8013d1:	8b 17                	mov    (%edi),%edx
  8013d3:	83 7a 08 00          	cmpl   $0x0,0x8(%edx)
  8013d7:	74 0b                	je     8013e4 <lwip_recvfrom+0x73>
  8013d9:	b8 6e 00 00 00       	mov    $0x6e,%eax
  8013de:	80 7a 0c 00          	cmpb   $0x0,0xc(%edx)
  8013e2:	74 17                	je     8013fb <lwip_recvfrom+0x8a>
  8013e4:	0f be 52 0c          	movsbl 0xc(%edx),%edx
  8013e8:	f7 da                	neg    %edx
  8013ea:	b8 05 00 00 00       	mov    $0x5,%eax
  8013ef:	83 fa 0e             	cmp    $0xe,%edx
  8013f2:	77 07                	ja     8013fb <lwip_recvfrom+0x8a>
  8013f4:	8b 04 95 20 15 81 00 	mov    0x811520(,%edx,4),%eax
  8013fb:	89 47 10             	mov    %eax,0x10(%edi)
  8013fe:	a3 e0 b1 b3 00       	mov    %eax,0xb3b1e0
        return 0;
  801403:	b8 00 00 00 00       	mov    $0x0,%eax
  801408:	e9 0b 01 00 00       	jmp    801518 <lwip_recvfrom+0x1a7>
        sock_set_errno(sock, EWOULDBLOCK);
  80140d:	c7 47 10 0b 00 00 00 	movl   $0xb,0x10(%edi)
  801414:	c7 05 e0 b1 b3 00 0b 	movl   $0xb,0xb3b1e0
  80141b:	00 00 00 
        return -1;
  80141e:	b8 ff ff ff ff       	mov    $0xffffffff,%eax
  801423:	e9 f0 00 00 00       	jmp    801518 <lwip_recvfrom+0x1a7>
        sock->lastdata = NULL;
  801428:	c7 47 04 00 00 00 00 	movl   $0x0,0x4(%edi)
        sock->lastoffset = 0;
  80142f:	66 c7 47 08 00 00    	movw   $0x0,0x8(%edi)
        netbuf_delete(buf);
  801435:	83 ec 0c             	sub    $0xc,%esp
  801438:	56                   	push   %esi
  801439:	e8 bd 11 00 00       	call   8025fb <netbuf_delete>
  80143e:	83 c4 10             	add    $0x10,%esp
  } while (!done);
  801441:	80 7d c7 00          	cmpb   $0x0,-0x39(%ebp)
  801445:	0f 85 ac 00 00 00    	jne    8014f7 <lwip_recvfrom+0x186>
    if (sock->lastdata) {
  80144b:	8b 77 04             	mov    0x4(%edi),%esi
  80144e:	85 f6                	test   %esi,%esi
  801450:	0f 84 4e ff ff ff    	je     8013a4 <lwip_recvfrom+0x33>
    buflen = netbuf_len(buf);
  801456:	8b 16                	mov    (%esi),%edx
  801458:	0f b7 4a 08          	movzwl 0x8(%edx),%ecx
    buflen -= sock->lastoffset;
  80145c:	0f b7 47 08          	movzwl 0x8(%edi),%eax
  801460:	89 cb                	mov    %ecx,%ebx
  801462:	29 c3                	sub    %eax,%ebx
    if (len > buflen) {
  801464:	0f b7 db             	movzwl %bx,%ebx
  801467:	89 5d bc             	mov    %ebx,-0x44(%ebp)
      copylen = len;
  80146a:	29 c1                	sub    %eax,%ecx
  80146c:	3b 5d 10             	cmp    0x10(%ebp),%ebx
  80146f:	66 0f 4d 4d 10       	cmovge 0x10(%ebp),%cx
  801474:	89 cb                	mov    %ecx,%ebx
    netbuf_copy_partial(buf, (u8_t*)mem + off, copylen, sock->lastoffset);
  801476:	0f b7 c9             	movzwl %cx,%ecx
  801479:	0f b7 c0             	movzwl %ax,%eax
  80147c:	50                   	push   %eax
  80147d:	89 4d c0             	mov    %ecx,-0x40(%ebp)
  801480:	51                   	push   %ecx
  801481:	0f b7 45 c4          	movzwl -0x3c(%ebp),%eax
  801485:	03 45 0c             	add    0xc(%ebp),%eax
  801488:	50                   	push   %eax
  801489:	52                   	push   %edx
  80148a:	e8 15 3d 00 00       	call   8051a4 <pbuf_copy_partial>
    off += copylen;
  80148f:	66 01 5d c4          	add    %bx,-0x3c(%ebp)
    if (netconn_type(sock->conn) == NETCONN_TCP) {
  801493:	83 c4 04             	add    $0x4,%esp
  801496:	ff 37                	pushl  (%edi)
  801498:	e8 8d 9b 00 00       	call   80b02a <netconn_type>
  80149d:	83 c4 10             	add    $0x10,%esp
      done = 1;
  8014a0:	c6 45 c7 01          	movb   $0x1,-0x39(%ebp)
    if (netconn_type(sock->conn) == NETCONN_TCP) {
  8014a4:	83 f8 10             	cmp    $0x10,%eax
  8014a7:	75 23                	jne    8014cc <lwip_recvfrom+0x15b>
      len -= copylen;
  8014a9:	8b 4d c0             	mov    -0x40(%ebp),%ecx
  8014ac:	29 4d 10             	sub    %ecx,0x10(%ebp)
      if ( (len <= 0) || (buf->p->flags & PBUF_FLAG_PUSH) || !sock->rcvevent) {
  8014af:	83 7d 10 00          	cmpl   $0x0,0x10(%ebp)
  8014b3:	7e 17                	jle    8014cc <lwip_recvfrom+0x15b>
  8014b5:	8b 06                	mov    (%esi),%eax
  8014b7:	0f b6 40 0d          	movzbl 0xd(%eax),%eax
  8014bb:	83 e0 01             	and    $0x1,%eax
  8014be:	88 45 c7             	mov    %al,-0x39(%ebp)
  8014c1:	75 09                	jne    8014cc <lwip_recvfrom+0x15b>
  8014c3:	66 83 7f 0a 00       	cmpw   $0x0,0xa(%edi)
  8014c8:	0f 94 45 c7          	sete   -0x39(%ebp)
    if ((flags & MSG_PEEK)==0) {
  8014cc:	f6 45 14 01          	testb  $0x1,0x14(%ebp)
  8014d0:	75 25                	jne    8014f7 <lwip_recvfrom+0x186>
      if ((sock->conn->type == NETCONN_TCP) && (buflen - copylen > 0)) {
  8014d2:	8b 07                	mov    (%edi),%eax
  8014d4:	83 38 10             	cmpl   $0x10,(%eax)
  8014d7:	0f 85 4b ff ff ff    	jne    801428 <lwip_recvfrom+0xb7>
  8014dd:	8b 45 bc             	mov    -0x44(%ebp),%eax
  8014e0:	2b 45 c0             	sub    -0x40(%ebp),%eax
  8014e3:	85 c0                	test   %eax,%eax
  8014e5:	0f 8e 3d ff ff ff    	jle    801428 <lwip_recvfrom+0xb7>
        sock->lastdata = buf;
  8014eb:	89 77 04             	mov    %esi,0x4(%edi)
        sock->lastoffset += copylen;
  8014ee:	66 01 5f 08          	add    %bx,0x8(%edi)
        LWIP_DEBUGF(SOCKETS_DEBUG, ("lwip_recvfrom: lastdata now netbuf=%p\n", (void*)buf));
  8014f2:	e9 4a ff ff ff       	jmp    801441 <lwip_recvfrom+0xd0>
  if (from && fromlen) {
  8014f7:	83 7d 18 00          	cmpl   $0x0,0x18(%ebp)
  8014fb:	74 06                	je     801503 <lwip_recvfrom+0x192>
  8014fd:	83 7d 1c 00          	cmpl   $0x0,0x1c(%ebp)
  801501:	75 1d                	jne    801520 <lwip_recvfrom+0x1af>
  sock_set_errno(sock, 0);
  801503:	c7 47 10 00 00 00 00 	movl   $0x0,0x10(%edi)
  80150a:	c7 05 e0 b1 b3 00 00 	movl   $0x0,0xb3b1e0
  801511:	00 00 00 
  return off;
  801514:	0f b7 45 c4          	movzwl -0x3c(%ebp),%eax
}
  801518:	8d 65 f4             	lea    -0xc(%ebp),%esp
  80151b:	5b                   	pop    %ebx
  80151c:	5e                   	pop    %esi
  80151d:	5f                   	pop    %edi
  80151e:	5d                   	pop    %ebp
  80151f:	c3                   	ret    
    if (netconn_type(sock->conn) == NETCONN_TCP) {
  801520:	83 ec 0c             	sub    $0xc,%esp
  801523:	ff 37                	pushl  (%edi)
  801525:	e8 00 9b 00 00       	call   80b02a <netconn_type>
  80152a:	83 c4 10             	add    $0x10,%esp
  80152d:	83 f8 10             	cmp    $0x10,%eax
  801530:	74 65                	je     801597 <lwip_recvfrom+0x226>
      addr = netbuf_fromaddr(buf);
  801532:	8b 5e 08             	mov    0x8(%esi),%ebx
      port = netbuf_fromport(buf);
  801535:	0f b7 46 0c          	movzwl 0xc(%esi),%eax
  801539:	66 89 45 e6          	mov    %ax,-0x1a(%ebp)
    memset(&sin, 0, sizeof(sin));
  80153d:	83 ec 04             	sub    $0x4,%esp
  801540:	6a 10                	push   $0x10
  801542:	6a 00                	push   $0x0
  801544:	8d 45 d4             	lea    -0x2c(%ebp),%eax
  801547:	50                   	push   %eax
  801548:	e8 8d dc 00 00       	call   80f1da <memset>
    sin.sin_len = sizeof(sin);
  80154d:	c6 45 d4 10          	movb   $0x10,-0x2c(%ebp)
    sin.sin_family = AF_INET;
  801551:	c6 45 d5 02          	movb   $0x2,-0x2b(%ebp)
    sin.sin_port = htons(port);
  801555:	0f b7 45 e6          	movzwl -0x1a(%ebp),%eax
  801559:	89 04 24             	mov    %eax,(%esp)
  80155c:	e8 f2 63 00 00       	call   807953 <htons>
  801561:	66 89 45 d6          	mov    %ax,-0x2a(%ebp)
    sin.sin_addr.s_addr = addr->addr;
  801565:	8b 03                	mov    (%ebx),%eax
  801567:	89 45 d8             	mov    %eax,-0x28(%ebp)
    if (*fromlen > sizeof(sin))
  80156a:	83 c4 10             	add    $0x10,%esp
  80156d:	8b 45 1c             	mov    0x1c(%ebp),%eax
  801570:	83 38 10             	cmpl   $0x10,(%eax)
  801573:	76 06                	jbe    80157b <lwip_recvfrom+0x20a>
      *fromlen = sizeof(sin);
  801575:	c7 00 10 00 00 00    	movl   $0x10,(%eax)
    SMEMCPY(from, &sin, *fromlen);
  80157b:	83 ec 04             	sub    $0x4,%esp
  80157e:	8b 45 1c             	mov    0x1c(%ebp),%eax
  801581:	ff 30                	pushl  (%eax)
  801583:	8d 45 d4             	lea    -0x2c(%ebp),%eax
  801586:	50                   	push   %eax
  801587:	ff 75 18             	pushl  0x18(%ebp)
  80158a:	e8 fd dc 00 00       	call   80f28c <memcpy>
  80158f:	83 c4 10             	add    $0x10,%esp
  801592:	e9 6c ff ff ff       	jmp    801503 <lwip_recvfrom+0x192>
      netconn_getaddr(sock->conn, addr, &port, 0);
  801597:	6a 00                	push   $0x0
  801599:	8d 45 e6             	lea    -0x1a(%ebp),%eax
  80159c:	50                   	push   %eax
  80159d:	8d 45 d8             	lea    -0x28(%ebp),%eax
  8015a0:	50                   	push   %eax
  8015a1:	ff 37                	pushl  (%edi)
  8015a3:	e8 ae 9a 00 00       	call   80b056 <netconn_getaddr>
  8015a8:	83 c4 10             	add    $0x10,%esp
      addr = (struct ip_addr*)&(sin.sin_addr.s_addr);
  8015ab:	8d 5d d8             	lea    -0x28(%ebp),%ebx
  8015ae:	eb 8d                	jmp    80153d <lwip_recvfrom+0x1cc>
    return -1;
  8015b0:	b8 ff ff ff ff       	mov    $0xffffffff,%eax
  8015b5:	e9 5e ff ff ff       	jmp    801518 <lwip_recvfrom+0x1a7>

008015ba <lwip_read>:
{
  8015ba:	f3 0f 1e fb          	endbr32 
  8015be:	55                   	push   %ebp
  8015bf:	89 e5                	mov    %esp,%ebp
  8015c1:	83 ec 10             	sub    $0x10,%esp
  return lwip_recvfrom(s, mem, len, 0, NULL, NULL);
  8015c4:	6a 00                	push   $0x0
  8015c6:	6a 00                	push   $0x0
  8015c8:	6a 00                	push   $0x0
  8015ca:	ff 75 10             	pushl  0x10(%ebp)
  8015cd:	ff 75 0c             	pushl  0xc(%ebp)
  8015d0:	ff 75 08             	pushl  0x8(%ebp)
  8015d3:	e8 99 fd ff ff       	call   801371 <lwip_recvfrom>
}
  8015d8:	c9                   	leave  
  8015d9:	c3                   	ret    

008015da <lwip_recv>:
{
  8015da:	f3 0f 1e fb          	endbr32 
  8015de:	55                   	push   %ebp
  8015df:	89 e5                	mov    %esp,%ebp
  8015e1:	83 ec 10             	sub    $0x10,%esp
  return lwip_recvfrom(s, mem, len, flags, NULL, NULL);
  8015e4:	6a 00                	push   $0x0
  8015e6:	6a 00                	push   $0x0
  8015e8:	ff 75 14             	pushl  0x14(%ebp)
  8015eb:	ff 75 10             	pushl  0x10(%ebp)
  8015ee:	ff 75 0c             	pushl  0xc(%ebp)
  8015f1:	ff 75 08             	pushl  0x8(%ebp)
  8015f4:	e8 78 fd ff ff       	call   801371 <lwip_recvfrom>
}
  8015f9:	c9                   	leave  
  8015fa:	c3                   	ret    

008015fb <lwip_sendto>:
{
  8015fb:	f3 0f 1e fb          	endbr32 
  8015ff:	55                   	push   %ebp
  801600:	89 e5                	mov    %esp,%ebp
  801602:	57                   	push   %edi
  801603:	56                   	push   %esi
  801604:	53                   	push   %ebx
  801605:	83 ec 2c             	sub    $0x2c,%esp
  801608:	8b 75 10             	mov    0x10(%ebp),%esi
  80160b:	8b 7d 18             	mov    0x18(%ebp),%edi
  sock = get_socket(s);
  80160e:	8b 45 08             	mov    0x8(%ebp),%eax
  801611:	e8 0c f2 ff ff       	call   800822 <get_socket>
  if (!sock)
  801616:	85 c0                	test   %eax,%eax
  801618:	0f 84 28 01 00 00    	je     801746 <lwip_sendto+0x14b>
  80161e:	89 c3                	mov    %eax,%ebx
  if (sock->conn->type==NETCONN_TCP) {
  801620:	8b 00                	mov    (%eax),%eax
  801622:	83 38 10             	cmpl   $0x10,(%eax)
  801625:	0f 84 be 00 00 00    	je     8016e9 <lwip_sendto+0xee>
  LWIP_ASSERT("lwip_sendto: size must fit in u16_t",
  80162b:	81 fe ff ff 00 00    	cmp    $0xffff,%esi
  801631:	0f 87 c8 00 00 00    	ja     8016ff <lwip_sendto+0x104>
  LWIP_ERROR("lwip_sendto: invalid address", (((to == NULL) && (tolen == 0)) ||
  801637:	89 f8                	mov    %edi,%eax
  801639:	0b 45 1c             	or     0x1c(%ebp),%eax
  80163c:	0f 84 0b 01 00 00    	je     80174d <lwip_sendto+0x152>
  801642:	83 7d 1c 10          	cmpl   $0x10,0x1c(%ebp)
  801646:	0f 85 ca 00 00 00    	jne    801716 <lwip_sendto+0x11b>
  80164c:	80 7f 01 02          	cmpb   $0x2,0x1(%edi)
  801650:	0f 85 c0 00 00 00    	jne    801716 <lwip_sendto+0x11b>
  buf.p = buf.ptr = NULL;
  801656:	c7 45 d8 00 00 00 00 	movl   $0x0,-0x28(%ebp)
  80165d:	c7 45 d4 00 00 00 00 	movl   $0x0,-0x2c(%ebp)
    remote_addr.addr = ((struct sockaddr_in *)to)->sin_addr.s_addr;
  801664:	8b 47 04             	mov    0x4(%edi),%eax
  801667:	89 45 e4             	mov    %eax,-0x1c(%ebp)
    remote_port      = ntohs(((struct sockaddr_in *)to)->sin_port);
  80166a:	83 ec 0c             	sub    $0xc,%esp
  80166d:	0f b7 47 02          	movzwl 0x2(%edi),%eax
  801671:	50                   	push   %eax
  801672:	e8 ed 62 00 00       	call   807964 <ntohs>
    buf.addr         = &remote_addr;
  801677:	8d 55 e4             	lea    -0x1c(%ebp),%edx
  80167a:	89 55 dc             	mov    %edx,-0x24(%ebp)
    buf.port         = remote_port;
  80167d:	66 89 45 e0          	mov    %ax,-0x20(%ebp)
  801681:	83 c4 10             	add    $0x10,%esp
  if ((err = netbuf_ref(&buf, data, size)) == ERR_OK) {
  801684:	83 ec 04             	sub    $0x4,%esp
  801687:	0f b7 c6             	movzwl %si,%eax
  80168a:	50                   	push   %eax
  80168b:	ff 75 0c             	pushl  0xc(%ebp)
  80168e:	8d 45 d4             	lea    -0x2c(%ebp),%eax
  801691:	50                   	push   %eax
  801692:	e8 6b 10 00 00       	call   802702 <netbuf_ref>
  801697:	0f be f8             	movsbl %al,%edi
  80169a:	83 c4 10             	add    $0x10,%esp
  80169d:	85 ff                	test   %edi,%edi
  80169f:	0f 84 88 00 00 00    	je     80172d <lwip_sendto+0x132>
  if (buf.p != NULL) {
  8016a5:	8b 45 d4             	mov    -0x2c(%ebp),%eax
  8016a8:	85 c0                	test   %eax,%eax
  8016aa:	74 0c                	je     8016b8 <lwip_sendto+0xbd>
    pbuf_free(buf.p);
  8016ac:	83 ec 0c             	sub    $0xc,%esp
  8016af:	50                   	push   %eax
  8016b0:	e8 66 33 00 00       	call   804a1b <pbuf_free>
  8016b5:	83 c4 10             	add    $0x10,%esp
  sock_set_errno(sock, err_to_errno(err));
  8016b8:	89 fa                	mov    %edi,%edx
  8016ba:	f7 da                	neg    %edx
  8016bc:	b8 05 00 00 00       	mov    $0x5,%eax
  8016c1:	83 fa 0e             	cmp    $0xe,%edx
  8016c4:	77 07                	ja     8016cd <lwip_sendto+0xd2>
  8016c6:	8b 04 95 20 15 81 00 	mov    0x811520(,%edx,4),%eax
  8016cd:	89 43 10             	mov    %eax,0x10(%ebx)
  8016d0:	a3 e0 b1 b3 00       	mov    %eax,0xb3b1e0
  return (err==ERR_OK?size:-1);
  8016d5:	85 ff                	test   %edi,%edi
  8016d7:	b8 ff ff ff ff       	mov    $0xffffffff,%eax
  8016dc:	0f 45 f0             	cmovne %eax,%esi
}
  8016df:	89 f0                	mov    %esi,%eax
  8016e1:	8d 65 f4             	lea    -0xc(%ebp),%esp
  8016e4:	5b                   	pop    %ebx
  8016e5:	5e                   	pop    %esi
  8016e6:	5f                   	pop    %edi
  8016e7:	5d                   	pop    %ebp
  8016e8:	c3                   	ret    
    return lwip_send(s, data, size, flags);
  8016e9:	ff 75 14             	pushl  0x14(%ebp)
  8016ec:	56                   	push   %esi
  8016ed:	ff 75 0c             	pushl  0xc(%ebp)
  8016f0:	ff 75 08             	pushl  0x8(%ebp)
  8016f3:	e8 7c 00 00 00       	call   801774 <lwip_send>
  8016f8:	89 c6                	mov    %eax,%esi
  8016fa:	83 c4 10             	add    $0x10,%esp
  8016fd:	eb e0                	jmp    8016df <lwip_sendto+0xe4>
  LWIP_ASSERT("lwip_sendto: size must fit in u16_t",
  8016ff:	83 ec 04             	sub    $0x4,%esp
  801702:	68 e0 14 81 00       	push   $0x8114e0
  801707:	68 96 02 00 00       	push   $0x296
  80170c:	68 4f 14 81 00       	push   $0x81144f
  801711:	e8 21 d2 00 00       	call   80e937 <_panic>
  LWIP_ERROR("lwip_sendto: invalid address", (((to == NULL) && (tolen == 0)) ||
  801716:	83 ec 04             	sub    $0x4,%esp
  801719:	68 c0 14 81 00       	push   $0x8114c0
  80171e:	68 98 02 00 00       	push   $0x298
  801723:	68 4f 14 81 00       	push   $0x81144f
  801728:	e8 0a d2 00 00       	call   80e937 <_panic>
    err = netconn_send(sock->conn, &buf);
  80172d:	83 ec 08             	sub    $0x8,%esp
  801730:	8d 45 d4             	lea    -0x2c(%ebp),%eax
  801733:	50                   	push   %eax
  801734:	ff 33                	pushl  (%ebx)
  801736:	e8 f4 9c 00 00       	call   80b42f <netconn_send>
  80173b:	0f be f8             	movsbl %al,%edi
  80173e:	83 c4 10             	add    $0x10,%esp
  801741:	e9 5f ff ff ff       	jmp    8016a5 <lwip_sendto+0xaa>
    return -1;
  801746:	be ff ff ff ff       	mov    $0xffffffff,%esi
  80174b:	eb 92                	jmp    8016df <lwip_sendto+0xe4>
  buf.p = buf.ptr = NULL;
  80174d:	c7 45 d8 00 00 00 00 	movl   $0x0,-0x28(%ebp)
  801754:	c7 45 d4 00 00 00 00 	movl   $0x0,-0x2c(%ebp)
    remote_addr.addr = 0;
  80175b:	c7 45 e4 00 00 00 00 	movl   $0x0,-0x1c(%ebp)
    buf.addr         = NULL;
  801762:	c7 45 dc 00 00 00 00 	movl   $0x0,-0x24(%ebp)
    buf.port         = 0;
  801769:	66 c7 45 e0 00 00    	movw   $0x0,-0x20(%ebp)
  80176f:	e9 10 ff ff ff       	jmp    801684 <lwip_sendto+0x89>

00801774 <lwip_send>:
{
  801774:	f3 0f 1e fb          	endbr32 
  801778:	55                   	push   %ebp
  801779:	89 e5                	mov    %esp,%ebp
  80177b:	57                   	push   %edi
  80177c:	56                   	push   %esi
  80177d:	53                   	push   %ebx
  80177e:	83 ec 0c             	sub    $0xc,%esp
  801781:	8b 7d 08             	mov    0x8(%ebp),%edi
  801784:	8b 75 10             	mov    0x10(%ebp),%esi
  sock = get_socket(s);
  801787:	89 f8                	mov    %edi,%eax
  801789:	e8 94 f0 ff ff       	call   800822 <get_socket>
  if (!sock)
  80178e:	85 c0                	test   %eax,%eax
  801790:	74 70                	je     801802 <lwip_send+0x8e>
  801792:	89 c3                	mov    %eax,%ebx
  if (sock->conn->type!=NETCONN_TCP) {
  801794:	8b 10                	mov    (%eax),%edx
  801796:	83 3a 10             	cmpl   $0x10,(%edx)
  801799:	74 1f                	je     8017ba <lwip_send+0x46>
    return lwip_sendto(s, data, size, flags, NULL, 0);
  80179b:	83 ec 08             	sub    $0x8,%esp
  80179e:	6a 00                	push   $0x0
  8017a0:	6a 00                	push   $0x0
  8017a2:	ff 75 14             	pushl  0x14(%ebp)
  8017a5:	56                   	push   %esi
  8017a6:	ff 75 0c             	pushl  0xc(%ebp)
  8017a9:	57                   	push   %edi
  8017aa:	e8 4c fe ff ff       	call   8015fb <lwip_sendto>
  8017af:	83 c4 20             	add    $0x20,%esp
}
  8017b2:	8d 65 f4             	lea    -0xc(%ebp),%esp
  8017b5:	5b                   	pop    %ebx
  8017b6:	5e                   	pop    %esi
  8017b7:	5f                   	pop    %edi
  8017b8:	5d                   	pop    %ebp
  8017b9:	c3                   	ret    
  err = netconn_write(sock->conn, data, size, NETCONN_COPY | ((flags & MSG_MORE)?NETCONN_MORE:0));
  8017ba:	8b 45 14             	mov    0x14(%ebp),%eax
  8017bd:	c1 e8 03             	shr    $0x3,%eax
  8017c0:	83 e0 02             	and    $0x2,%eax
  8017c3:	83 c8 01             	or     $0x1,%eax
  8017c6:	0f b6 c0             	movzbl %al,%eax
  8017c9:	50                   	push   %eax
  8017ca:	56                   	push   %esi
  8017cb:	ff 75 0c             	pushl  0xc(%ebp)
  8017ce:	52                   	push   %edx
  8017cf:	e8 df 9c 00 00       	call   80b4b3 <netconn_write>
  sock_set_errno(sock, err_to_errno(err));
  8017d4:	0f be d0             	movsbl %al,%edx
  8017d7:	f7 da                	neg    %edx
  8017d9:	83 c4 10             	add    $0x10,%esp
  8017dc:	b9 05 00 00 00       	mov    $0x5,%ecx
  8017e1:	83 fa 0e             	cmp    $0xe,%edx
  8017e4:	77 07                	ja     8017ed <lwip_send+0x79>
  8017e6:	8b 0c 95 20 15 81 00 	mov    0x811520(,%edx,4),%ecx
  8017ed:	89 4b 10             	mov    %ecx,0x10(%ebx)
  8017f0:	89 0d e0 b1 b3 00    	mov    %ecx,0xb3b1e0
  return (err==ERR_OK?size:-1);
  8017f6:	84 c0                	test   %al,%al
  8017f8:	b8 ff ff ff ff       	mov    $0xffffffff,%eax
  8017fd:	0f 44 c6             	cmove  %esi,%eax
  801800:	eb b0                	jmp    8017b2 <lwip_send+0x3e>
    return -1;
  801802:	b8 ff ff ff ff       	mov    $0xffffffff,%eax
  801807:	eb a9                	jmp    8017b2 <lwip_send+0x3e>

00801809 <lwip_socket>:
{
  801809:	f3 0f 1e fb          	endbr32 
  80180d:	55                   	push   %ebp
  80180e:	89 e5                	mov    %esp,%ebp
  801810:	56                   	push   %esi
  801811:	53                   	push   %ebx
  801812:	8b 45 0c             	mov    0xc(%ebp),%eax
  switch (type) {
  801815:	83 f8 02             	cmp    $0x2,%eax
  801818:	74 5c                	je     801876 <lwip_socket+0x6d>
  80181a:	83 f8 03             	cmp    $0x3,%eax
  80181d:	74 16                	je     801835 <lwip_socket+0x2c>
  80181f:	83 f8 01             	cmp    $0x1,%eax
  801822:	74 79                	je     80189d <lwip_socket+0x94>
    set_errno(EINVAL);
  801824:	c7 05 e0 b1 b3 00 16 	movl   $0x16,0xb3b1e0
  80182b:	00 00 00 
    return -1;
  80182e:	bb ff ff ff ff       	mov    $0xffffffff,%ebx
  801833:	eb 38                	jmp    80186d <lwip_socket+0x64>
    conn = netconn_new_with_proto_and_callback(NETCONN_RAW, (u8_t)protocol, event_callback);
  801835:	83 ec 04             	sub    $0x4,%esp
  801838:	68 11 0a 80 00       	push   $0x800a11
  80183d:	0f b6 45 10          	movzbl 0x10(%ebp),%eax
  801841:	50                   	push   %eax
  801842:	6a 40                	push   $0x40
  801844:	e8 be 96 00 00       	call   80af07 <netconn_new_with_proto_and_callback>
  801849:	89 c6                	mov    %eax,%esi
    break;
  80184b:	83 c4 10             	add    $0x10,%esp
  if (!conn) {
  80184e:	85 f6                	test   %esi,%esi
  801850:	74 63                	je     8018b5 <lwip_socket+0xac>
  i = alloc_socket(conn);
  801852:	89 f0                	mov    %esi,%eax
  801854:	e8 5b f3 ff ff       	call   800bb4 <alloc_socket>
  801859:	89 c3                	mov    %eax,%ebx
  if (i == -1) {
  80185b:	83 f8 ff             	cmp    $0xffffffff,%eax
  80185e:	74 66                	je     8018c6 <lwip_socket+0xbd>
  conn->socket = i;
  801860:	89 46 1c             	mov    %eax,0x1c(%esi)
  set_errno(0);
  801863:	c7 05 e0 b1 b3 00 00 	movl   $0x0,0xb3b1e0
  80186a:	00 00 00 
}
  80186d:	89 d8                	mov    %ebx,%eax
  80186f:	8d 65 f8             	lea    -0x8(%ebp),%esp
  801872:	5b                   	pop    %ebx
  801873:	5e                   	pop    %esi
  801874:	5d                   	pop    %ebp
  801875:	c3                   	ret    
    conn = netconn_new_with_callback( (protocol == IPPROTO_UDPLITE) ?
  801876:	81 7d 10 88 00 00 00 	cmpl   $0x88,0x10(%ebp)
  80187d:	0f 94 c0             	sete   %al
  801880:	0f b6 c0             	movzbl %al,%eax
  801883:	83 c0 20             	add    $0x20,%eax
  801886:	83 ec 04             	sub    $0x4,%esp
  801889:	68 11 0a 80 00       	push   $0x800a11
  80188e:	6a 00                	push   $0x0
  801890:	50                   	push   %eax
  801891:	e8 71 96 00 00       	call   80af07 <netconn_new_with_proto_and_callback>
  801896:	89 c6                	mov    %eax,%esi
    break;
  801898:	83 c4 10             	add    $0x10,%esp
  80189b:	eb b1                	jmp    80184e <lwip_socket+0x45>
    conn = netconn_new_with_callback(NETCONN_TCP, event_callback);
  80189d:	83 ec 04             	sub    $0x4,%esp
  8018a0:	68 11 0a 80 00       	push   $0x800a11
  8018a5:	6a 00                	push   $0x0
  8018a7:	6a 10                	push   $0x10
  8018a9:	e8 59 96 00 00       	call   80af07 <netconn_new_with_proto_and_callback>
  8018ae:	89 c6                	mov    %eax,%esi
    break;
  8018b0:	83 c4 10             	add    $0x10,%esp
  8018b3:	eb 99                	jmp    80184e <lwip_socket+0x45>
    set_errno(ENOBUFS);
  8018b5:	c7 05 e0 b1 b3 00 69 	movl   $0x69,0xb3b1e0
  8018bc:	00 00 00 
    return -1;
  8018bf:	bb ff ff ff ff       	mov    $0xffffffff,%ebx
  8018c4:	eb a7                	jmp    80186d <lwip_socket+0x64>
    netconn_delete(conn);
  8018c6:	83 ec 0c             	sub    $0xc,%esp
  8018c9:	56                   	push   %esi
  8018ca:	e8 17 97 00 00       	call   80afe6 <netconn_delete>
    set_errno(ENFILE);
  8018cf:	c7 05 e0 b1 b3 00 17 	movl   $0x17,0xb3b1e0
  8018d6:	00 00 00 
    return -1;
  8018d9:	83 c4 10             	add    $0x10,%esp
  8018dc:	eb 8f                	jmp    80186d <lwip_socket+0x64>

008018de <lwip_write>:
{
  8018de:	f3 0f 1e fb          	endbr32 
  8018e2:	55                   	push   %ebp
  8018e3:	89 e5                	mov    %esp,%ebp
  8018e5:	83 ec 08             	sub    $0x8,%esp
  return lwip_send(s, data, size, 0);
  8018e8:	6a 00                	push   $0x0
  8018ea:	ff 75 10             	pushl  0x10(%ebp)
  8018ed:	ff 75 0c             	pushl  0xc(%ebp)
  8018f0:	ff 75 08             	pushl  0x8(%ebp)
  8018f3:	e8 7c fe ff ff       	call   801774 <lwip_send>
}
  8018f8:	c9                   	leave  
  8018f9:	c3                   	ret    

008018fa <lwip_select>:
{
  8018fa:	f3 0f 1e fb          	endbr32 
  8018fe:	55                   	push   %ebp
  8018ff:	89 e5                	mov    %esp,%ebp
  801901:	57                   	push   %edi
  801902:	56                   	push   %esi
  801903:	53                   	push   %ebx
  801904:	83 ec 58             	sub    $0x58,%esp
  801907:	8b 5d 0c             	mov    0xc(%ebp),%ebx
  80190a:	8b 75 10             	mov    0x10(%ebp),%esi
  80190d:	8b 7d 14             	mov    0x14(%ebp),%edi
  select_cb.next = 0;
  801910:	c7 45 c4 00 00 00 00 	movl   $0x0,-0x3c(%ebp)
  select_cb.readset = readset;
  801917:	89 5d c8             	mov    %ebx,-0x38(%ebp)
  select_cb.writeset = writeset;
  80191a:	89 75 cc             	mov    %esi,-0x34(%ebp)
  select_cb.exceptset = exceptset;
  80191d:	89 7d d0             	mov    %edi,-0x30(%ebp)
  select_cb.sem_signalled = 0;
  801920:	c7 45 d4 00 00 00 00 	movl   $0x0,-0x2c(%ebp)
  sys_sem_wait(selectsem);
  801927:	ff 35 40 50 81 00    	pushl  0x815040
  80192d:	e8 ee 39 00 00       	call   805320 <sys_sem_wait>
  if (readset)
  801932:	83 c4 10             	add    $0x10,%esp
  801935:	85 db                	test   %ebx,%ebx
  801937:	0f 84 0b 01 00 00    	je     801a48 <lwip_select+0x14e>
    lreadset = *readset;
  80193d:	8b 03                	mov    (%ebx),%eax
  80193f:	89 45 e4             	mov    %eax,-0x1c(%ebp)
  if (writeset)
  801942:	85 f6                	test   %esi,%esi
  801944:	0f 84 16 01 00 00    	je     801a60 <lwip_select+0x166>
    lwriteset = *writeset;
  80194a:	8b 06                	mov    (%esi),%eax
  80194c:	89 45 e0             	mov    %eax,-0x20(%ebp)
  if (exceptset)
  80194f:	85 ff                	test   %edi,%edi
  801951:	0f 84 21 01 00 00    	je     801a78 <lwip_select+0x17e>
    lexceptset = *exceptset;
  801957:	8b 07                	mov    (%edi),%eax
  801959:	89 45 dc             	mov    %eax,-0x24(%ebp)
  nready = lwip_selscan(maxfdp1, &lreadset, &lwriteset, &lexceptset);
  80195c:	83 ec 0c             	sub    $0xc,%esp
  80195f:	8d 45 dc             	lea    -0x24(%ebp),%eax
  801962:	50                   	push   %eax
  801963:	8d 4d e0             	lea    -0x20(%ebp),%ecx
  801966:	8d 55 e4             	lea    -0x1c(%ebp),%edx
  801969:	8b 45 08             	mov    0x8(%ebp),%eax
  80196c:	e8 f0 ee ff ff       	call   800861 <lwip_selscan>
  801971:	89 45 b4             	mov    %eax,-0x4c(%ebp)
  if (!nready) {
  801974:	83 c4 10             	add    $0x10,%esp
  801977:	85 c0                	test   %eax,%eax
  801979:	0f 85 a0 02 00 00    	jne    801c1f <lwip_select+0x325>
    if (timeout && timeout->tv_sec == 0 && timeout->tv_usec == 0) {
  80197f:	83 7d 18 00          	cmpl   $0x0,0x18(%ebp)
  801983:	0f 84 ac 02 00 00    	je     801c35 <lwip_select+0x33b>
  801989:	8b 45 18             	mov    0x18(%ebp),%eax
  80198c:	83 38 00             	cmpl   $0x0,(%eax)
  80198f:	75 0e                	jne    80199f <lwip_select+0xa5>
  801991:	8b 40 04             	mov    0x4(%eax),%eax
  801994:	89 45 b4             	mov    %eax,-0x4c(%ebp)
  801997:	85 c0                	test   %eax,%eax
  801999:	0f 84 f1 00 00 00    	je     801a90 <lwip_select+0x196>
    select_cb.sem = sys_sem_new(0);
  80199f:	83 ec 0c             	sub    $0xc,%esp
  8019a2:	6a 00                	push   $0x0
  8019a4:	e8 f7 86 00 00       	call   80a0a0 <sys_sem_new>
  8019a9:	89 45 d8             	mov    %eax,-0x28(%ebp)
    select_cb.next = select_cb_list;
  8019ac:	a1 48 50 81 00       	mov    0x815048,%eax
  8019b1:	89 45 c4             	mov    %eax,-0x3c(%ebp)
    select_cb_list = &select_cb;
  8019b4:	8d 45 c4             	lea    -0x3c(%ebp),%eax
  8019b7:	a3 48 50 81 00       	mov    %eax,0x815048
    sys_sem_signal(selectsem);
  8019bc:	83 c4 04             	add    $0x4,%esp
  8019bf:	ff 35 40 50 81 00    	pushl  0x815040
  8019c5:	e8 a3 89 00 00       	call   80a36d <sys_sem_signal>
      msectimeout =  ((timeout->tv_sec * 1000) + ((timeout->tv_usec + 500)/1000));
  8019ca:	8b 45 18             	mov    0x18(%ebp),%eax
  8019cd:	8b 40 04             	mov    0x4(%eax),%eax
  8019d0:	89 45 b4             	mov    %eax,-0x4c(%ebp)
  8019d3:	8d 88 f4 01 00 00    	lea    0x1f4(%eax),%ecx
  8019d9:	ba d3 4d 62 10       	mov    $0x10624dd3,%edx
  8019de:	89 c8                	mov    %ecx,%eax
  8019e0:	f7 ea                	imul   %edx
  8019e2:	c1 fa 06             	sar    $0x6,%edx
  8019e5:	c1 f9 1f             	sar    $0x1f,%ecx
  8019e8:	29 ca                	sub    %ecx,%edx
  8019ea:	8b 45 18             	mov    0x18(%ebp),%eax
  8019ed:	69 00 e8 03 00 00    	imul   $0x3e8,(%eax),%eax
  8019f3:	83 c4 10             	add    $0x10,%esp
  8019f6:	01 d0                	add    %edx,%eax
  8019f8:	ba 01 00 00 00       	mov    $0x1,%edx
  8019fd:	0f 44 c2             	cmove  %edx,%eax
    i = sys_sem_wait_timeout(select_cb.sem, msectimeout);
  801a00:	83 ec 08             	sub    $0x8,%esp
  801a03:	50                   	push   %eax
  801a04:	ff 75 d8             	pushl  -0x28(%ebp)
  801a07:	e8 ee 3a 00 00       	call   8054fa <sys_sem_wait_timeout>
  801a0c:	89 45 b4             	mov    %eax,-0x4c(%ebp)
    sys_sem_wait(selectsem);
  801a0f:	83 c4 04             	add    $0x4,%esp
  801a12:	ff 35 40 50 81 00    	pushl  0x815040
  801a18:	e8 03 39 00 00       	call   805320 <sys_sem_wait>
    if (select_cb_list == &select_cb)
  801a1d:	a1 48 50 81 00       	mov    0x815048,%eax
  801a22:	8d 55 c4             	lea    -0x3c(%ebp),%edx
  801a25:	83 c4 10             	add    $0x10,%esp
        if (p_selcb->next == &select_cb) {
  801a28:	89 d1                	mov    %edx,%ecx
    if (select_cb_list == &select_cb)
  801a2a:	39 d0                	cmp    %edx,%eax
  801a2c:	0f 84 ba 00 00 00    	je     801aec <lwip_select+0x1f2>
      for (p_selcb = select_cb_list; p_selcb; p_selcb = p_selcb->next) {
  801a32:	85 c0                	test   %eax,%eax
  801a34:	0f 84 c1 00 00 00    	je     801afb <lwip_select+0x201>
        if (p_selcb->next == &select_cb) {
  801a3a:	8b 10                	mov    (%eax),%edx
  801a3c:	39 ca                	cmp    %ecx,%edx
  801a3e:	0f 84 b2 00 00 00    	je     801af6 <lwip_select+0x1fc>
      for (p_selcb = select_cb_list; p_selcb; p_selcb = p_selcb->next) {
  801a44:	89 d0                	mov    %edx,%eax
  801a46:	eb ea                	jmp    801a32 <lwip_select+0x138>
    FD_ZERO(&lreadset);
  801a48:	83 ec 04             	sub    $0x4,%esp
  801a4b:	6a 04                	push   $0x4
  801a4d:	6a 00                	push   $0x0
  801a4f:	8d 45 e4             	lea    -0x1c(%ebp),%eax
  801a52:	50                   	push   %eax
  801a53:	e8 82 d7 00 00       	call   80f1da <memset>
  801a58:	83 c4 10             	add    $0x10,%esp
  801a5b:	e9 e2 fe ff ff       	jmp    801942 <lwip_select+0x48>
    FD_ZERO(&lwriteset);
  801a60:	83 ec 04             	sub    $0x4,%esp
  801a63:	6a 04                	push   $0x4
  801a65:	6a 00                	push   $0x0
  801a67:	8d 45 e0             	lea    -0x20(%ebp),%eax
  801a6a:	50                   	push   %eax
  801a6b:	e8 6a d7 00 00       	call   80f1da <memset>
  801a70:	83 c4 10             	add    $0x10,%esp
  801a73:	e9 d7 fe ff ff       	jmp    80194f <lwip_select+0x55>
    FD_ZERO(&lexceptset);
  801a78:	83 ec 04             	sub    $0x4,%esp
  801a7b:	6a 04                	push   $0x4
  801a7d:	6a 00                	push   $0x0
  801a7f:	8d 45 dc             	lea    -0x24(%ebp),%eax
  801a82:	50                   	push   %eax
  801a83:	e8 52 d7 00 00       	call   80f1da <memset>
  801a88:	83 c4 10             	add    $0x10,%esp
  801a8b:	e9 cc fe ff ff       	jmp    80195c <lwip_select+0x62>
      sys_sem_signal(selectsem);
  801a90:	83 ec 0c             	sub    $0xc,%esp
  801a93:	ff 35 40 50 81 00    	pushl  0x815040
  801a99:	e8 cf 88 00 00       	call   80a36d <sys_sem_signal>
      if (readset)
  801a9e:	83 c4 10             	add    $0x10,%esp
  801aa1:	85 db                	test   %ebx,%ebx
  801aa3:	74 10                	je     801ab5 <lwip_select+0x1bb>
        FD_ZERO(readset);
  801aa5:	83 ec 04             	sub    $0x4,%esp
  801aa8:	6a 04                	push   $0x4
  801aaa:	6a 00                	push   $0x0
  801aac:	53                   	push   %ebx
  801aad:	e8 28 d7 00 00       	call   80f1da <memset>
  801ab2:	83 c4 10             	add    $0x10,%esp
      if (writeset)
  801ab5:	85 f6                	test   %esi,%esi
  801ab7:	74 10                	je     801ac9 <lwip_select+0x1cf>
        FD_ZERO(writeset);
  801ab9:	83 ec 04             	sub    $0x4,%esp
  801abc:	6a 04                	push   $0x4
  801abe:	6a 00                	push   $0x0
  801ac0:	56                   	push   %esi
  801ac1:	e8 14 d7 00 00       	call   80f1da <memset>
  801ac6:	83 c4 10             	add    $0x10,%esp
      if (exceptset)
  801ac9:	85 ff                	test   %edi,%edi
  801acb:	74 10                	je     801add <lwip_select+0x1e3>
        FD_ZERO(exceptset);
  801acd:	83 ec 04             	sub    $0x4,%esp
  801ad0:	6a 04                	push   $0x4
  801ad2:	6a 00                	push   $0x0
  801ad4:	57                   	push   %edi
  801ad5:	e8 00 d7 00 00       	call   80f1da <memset>
  801ada:	83 c4 10             	add    $0x10,%esp
      set_errno(0);
  801add:	c7 05 e0 b1 b3 00 00 	movl   $0x0,0xb3b1e0
  801ae4:	00 00 00 
      return 0;
  801ae7:	e9 98 00 00 00       	jmp    801b84 <lwip_select+0x28a>
      select_cb_list = select_cb.next;
  801aec:	8b 45 c4             	mov    -0x3c(%ebp),%eax
  801aef:	a3 48 50 81 00       	mov    %eax,0x815048
  801af4:	eb 05                	jmp    801afb <lwip_select+0x201>
          p_selcb->next = select_cb.next;
  801af6:	8b 55 c4             	mov    -0x3c(%ebp),%edx
  801af9:	89 10                	mov    %edx,(%eax)
    sys_sem_signal(selectsem);
  801afb:	83 ec 0c             	sub    $0xc,%esp
  801afe:	ff 35 40 50 81 00    	pushl  0x815040
  801b04:	e8 64 88 00 00       	call   80a36d <sys_sem_signal>
    sys_sem_free(select_cb.sem);
  801b09:	83 c4 04             	add    $0x4,%esp
  801b0c:	ff 75 d8             	pushl  -0x28(%ebp)
  801b0f:	e8 11 86 00 00       	call   80a125 <sys_sem_free>
    if (i == 0)  {
  801b14:	83 c4 10             	add    $0x10,%esp
  801b17:	83 7d b4 00          	cmpl   $0x0,-0x4c(%ebp)
  801b1b:	74 72                	je     801b8f <lwip_select+0x295>
    if (readset)
  801b1d:	85 db                	test   %ebx,%ebx
  801b1f:	0f 84 b2 00 00 00    	je     801bd7 <lwip_select+0x2dd>
      lreadset = *readset;
  801b25:	8b 03                	mov    (%ebx),%eax
  801b27:	89 45 e4             	mov    %eax,-0x1c(%ebp)
    if (writeset)
  801b2a:	85 f6                	test   %esi,%esi
  801b2c:	0f 84 bd 00 00 00    	je     801bef <lwip_select+0x2f5>
      lwriteset = *writeset;
  801b32:	8b 06                	mov    (%esi),%eax
  801b34:	89 45 e0             	mov    %eax,-0x20(%ebp)
    if (exceptset)
  801b37:	85 ff                	test   %edi,%edi
  801b39:	0f 84 c8 00 00 00    	je     801c07 <lwip_select+0x30d>
      lexceptset = *exceptset;
  801b3f:	8b 07                	mov    (%edi),%eax
  801b41:	89 45 dc             	mov    %eax,-0x24(%ebp)
    nready = lwip_selscan(maxfdp1, &lreadset, &lwriteset, &lexceptset);
  801b44:	83 ec 0c             	sub    $0xc,%esp
  801b47:	8d 45 dc             	lea    -0x24(%ebp),%eax
  801b4a:	50                   	push   %eax
  801b4b:	8d 4d e0             	lea    -0x20(%ebp),%ecx
  801b4e:	8d 55 e4             	lea    -0x1c(%ebp),%edx
  801b51:	8b 45 08             	mov    0x8(%ebp),%eax
  801b54:	e8 08 ed ff ff       	call   800861 <lwip_selscan>
  801b59:	89 45 b4             	mov    %eax,-0x4c(%ebp)
  801b5c:	83 c4 10             	add    $0x10,%esp
  if (readset)
  801b5f:	85 db                	test   %ebx,%ebx
  801b61:	74 05                	je     801b68 <lwip_select+0x26e>
    *readset = lreadset;
  801b63:	8b 45 e4             	mov    -0x1c(%ebp),%eax
  801b66:	89 03                	mov    %eax,(%ebx)
  if (writeset)
  801b68:	85 f6                	test   %esi,%esi
  801b6a:	74 05                	je     801b71 <lwip_select+0x277>
    *writeset = lwriteset;
  801b6c:	8b 45 e0             	mov    -0x20(%ebp),%eax
  801b6f:	89 06                	mov    %eax,(%esi)
  if (exceptset)
  801b71:	85 ff                	test   %edi,%edi
  801b73:	74 05                	je     801b7a <lwip_select+0x280>
    *exceptset = lexceptset;
  801b75:	8b 45 dc             	mov    -0x24(%ebp),%eax
  801b78:	89 07                	mov    %eax,(%edi)
  set_errno(0);
  801b7a:	c7 05 e0 b1 b3 00 00 	movl   $0x0,0xb3b1e0
  801b81:	00 00 00 
}
  801b84:	8b 45 b4             	mov    -0x4c(%ebp),%eax
  801b87:	8d 65 f4             	lea    -0xc(%ebp),%esp
  801b8a:	5b                   	pop    %ebx
  801b8b:	5e                   	pop    %esi
  801b8c:	5f                   	pop    %edi
  801b8d:	5d                   	pop    %ebp
  801b8e:	c3                   	ret    
      if (readset)
  801b8f:	85 db                	test   %ebx,%ebx
  801b91:	74 10                	je     801ba3 <lwip_select+0x2a9>
        FD_ZERO(readset);
  801b93:	83 ec 04             	sub    $0x4,%esp
  801b96:	6a 04                	push   $0x4
  801b98:	6a 00                	push   $0x0
  801b9a:	53                   	push   %ebx
  801b9b:	e8 3a d6 00 00       	call   80f1da <memset>
  801ba0:	83 c4 10             	add    $0x10,%esp
      if (writeset)
  801ba3:	85 f6                	test   %esi,%esi
  801ba5:	74 10                	je     801bb7 <lwip_select+0x2bd>
        FD_ZERO(writeset);
  801ba7:	83 ec 04             	sub    $0x4,%esp
  801baa:	6a 04                	push   $0x4
  801bac:	6a 00                	push   $0x0
  801bae:	56                   	push   %esi
  801baf:	e8 26 d6 00 00       	call   80f1da <memset>
  801bb4:	83 c4 10             	add    $0x10,%esp
      if (exceptset)
  801bb7:	85 ff                	test   %edi,%edi
  801bb9:	74 10                	je     801bcb <lwip_select+0x2d1>
        FD_ZERO(exceptset);
  801bbb:	83 ec 04             	sub    $0x4,%esp
  801bbe:	6a 04                	push   $0x4
  801bc0:	6a 00                	push   $0x0
  801bc2:	57                   	push   %edi
  801bc3:	e8 12 d6 00 00       	call   80f1da <memset>
  801bc8:	83 c4 10             	add    $0x10,%esp
      set_errno(0);
  801bcb:	c7 05 e0 b1 b3 00 00 	movl   $0x0,0xb3b1e0
  801bd2:	00 00 00 
      return 0;
  801bd5:	eb ad                	jmp    801b84 <lwip_select+0x28a>
      FD_ZERO(&lreadset);
  801bd7:	83 ec 04             	sub    $0x4,%esp
  801bda:	6a 04                	push   $0x4
  801bdc:	6a 00                	push   $0x0
  801bde:	8d 45 e4             	lea    -0x1c(%ebp),%eax
  801be1:	50                   	push   %eax
  801be2:	e8 f3 d5 00 00       	call   80f1da <memset>
  801be7:	83 c4 10             	add    $0x10,%esp
  801bea:	e9 3b ff ff ff       	jmp    801b2a <lwip_select+0x230>
      FD_ZERO(&lwriteset);
  801bef:	83 ec 04             	sub    $0x4,%esp
  801bf2:	6a 04                	push   $0x4
  801bf4:	6a 00                	push   $0x0
  801bf6:	8d 45 e0             	lea    -0x20(%ebp),%eax
  801bf9:	50                   	push   %eax
  801bfa:	e8 db d5 00 00       	call   80f1da <memset>
  801bff:	83 c4 10             	add    $0x10,%esp
  801c02:	e9 30 ff ff ff       	jmp    801b37 <lwip_select+0x23d>
      FD_ZERO(&lexceptset);
  801c07:	83 ec 04             	sub    $0x4,%esp
  801c0a:	6a 04                	push   $0x4
  801c0c:	6a 00                	push   $0x0
  801c0e:	8d 45 dc             	lea    -0x24(%ebp),%eax
  801c11:	50                   	push   %eax
  801c12:	e8 c3 d5 00 00       	call   80f1da <memset>
  801c17:	83 c4 10             	add    $0x10,%esp
  801c1a:	e9 25 ff ff ff       	jmp    801b44 <lwip_select+0x24a>
    sys_sem_signal(selectsem);
  801c1f:	83 ec 0c             	sub    $0xc,%esp
  801c22:	ff 35 40 50 81 00    	pushl  0x815040
  801c28:	e8 40 87 00 00       	call   80a36d <sys_sem_signal>
  801c2d:	83 c4 10             	add    $0x10,%esp
  801c30:	e9 2a ff ff ff       	jmp    801b5f <lwip_select+0x265>
    select_cb.sem = sys_sem_new(0);
  801c35:	83 ec 0c             	sub    $0xc,%esp
  801c38:	6a 00                	push   $0x0
  801c3a:	e8 61 84 00 00       	call   80a0a0 <sys_sem_new>
  801c3f:	89 45 d8             	mov    %eax,-0x28(%ebp)
    select_cb.next = select_cb_list;
  801c42:	a1 48 50 81 00       	mov    0x815048,%eax
  801c47:	89 45 c4             	mov    %eax,-0x3c(%ebp)
    select_cb_list = &select_cb;
  801c4a:	8d 45 c4             	lea    -0x3c(%ebp),%eax
  801c4d:	a3 48 50 81 00       	mov    %eax,0x815048
    sys_sem_signal(selectsem);
  801c52:	83 c4 04             	add    $0x4,%esp
  801c55:	ff 35 40 50 81 00    	pushl  0x815040
  801c5b:	e8 0d 87 00 00       	call   80a36d <sys_sem_signal>
  801c60:	83 c4 10             	add    $0x10,%esp
      msectimeout = 0;
  801c63:	b8 00 00 00 00       	mov    $0x0,%eax
  801c68:	e9 93 fd ff ff       	jmp    801a00 <lwip_select+0x106>

00801c6d <lwip_shutdown>:
{
  801c6d:	f3 0f 1e fb          	endbr32 
  801c71:	55                   	push   %ebp
  801c72:	89 e5                	mov    %esp,%ebp
  801c74:	83 ec 14             	sub    $0x14,%esp
  return lwip_close(s); /* XXX temporary hack until proper implementation */
  801c77:	ff 75 08             	pushl  0x8(%ebp)
  801c7a:	e8 1d f5 ff ff       	call   80119c <lwip_close>
}
  801c7f:	c9                   	leave  
  801c80:	c3                   	ret    

00801c81 <lwip_getpeername>:
{
  801c81:	f3 0f 1e fb          	endbr32 
  801c85:	55                   	push   %ebp
  801c86:	89 e5                	mov    %esp,%ebp
  801c88:	83 ec 14             	sub    $0x14,%esp
  return lwip_getaddrname(s, name, namelen, 0);
  801c8b:	6a 00                	push   $0x0
  801c8d:	8b 4d 10             	mov    0x10(%ebp),%ecx
  801c90:	8b 55 0c             	mov    0xc(%ebp),%edx
  801c93:	8b 45 08             	mov    0x8(%ebp),%eax
  801c96:	e8 cb ec ff ff       	call   800966 <lwip_getaddrname>
}
  801c9b:	c9                   	leave  
  801c9c:	c3                   	ret    

00801c9d <lwip_getsockname>:
{
  801c9d:	f3 0f 1e fb          	endbr32 
  801ca1:	55                   	push   %ebp
  801ca2:	89 e5                	mov    %esp,%ebp
  801ca4:	83 ec 14             	sub    $0x14,%esp
  return lwip_getaddrname(s, name, namelen, 1);
  801ca7:	6a 01                	push   $0x1
  801ca9:	8b 4d 10             	mov    0x10(%ebp),%ecx
  801cac:	8b 55 0c             	mov    0xc(%ebp),%edx
  801caf:	8b 45 08             	mov    0x8(%ebp),%eax
  801cb2:	e8 af ec ff ff       	call   800966 <lwip_getaddrname>
}
  801cb7:	c9                   	leave  
  801cb8:	c3                   	ret    

00801cb9 <lwip_getsockopt>:
{
  801cb9:	f3 0f 1e fb          	endbr32 
  801cbd:	55                   	push   %ebp
  801cbe:	89 e5                	mov    %esp,%ebp
  801cc0:	57                   	push   %edi
  801cc1:	56                   	push   %esi
  801cc2:	53                   	push   %ebx
  801cc3:	83 ec 2c             	sub    $0x2c,%esp
  801cc6:	8b 75 0c             	mov    0xc(%ebp),%esi
  801cc9:	8b 7d 18             	mov    0x18(%ebp),%edi
  struct lwip_socket *sock = get_socket(s);
  801ccc:	8b 45 08             	mov    0x8(%ebp),%eax
  801ccf:	e8 4e eb ff ff       	call   800822 <get_socket>
  if (!sock)
  801cd4:	85 c0                	test   %eax,%eax
  801cd6:	0f 84 b0 01 00 00    	je     801e8c <lwip_getsockopt+0x1d3>
  801cdc:	89 c3                	mov    %eax,%ebx
  if ((NULL == optval) || (NULL == optlen)) {
  801cde:	83 7d 14 00          	cmpl   $0x0,0x14(%ebp)
  801ce2:	74 37                	je     801d1b <lwip_getsockopt+0x62>
  801ce4:	85 ff                	test   %edi,%edi
  801ce6:	74 33                	je     801d1b <lwip_getsockopt+0x62>
  switch (level) {
  801ce8:	83 fe 06             	cmp    $0x6,%esi
  801ceb:	0f 84 39 01 00 00    	je     801e2a <lwip_getsockopt+0x171>
  801cf1:	81 fe ff 0f 00 00    	cmp    $0xfff,%esi
  801cf7:	74 3d                	je     801d36 <lwip_getsockopt+0x7d>
  801cf9:	b8 5c 00 00 00       	mov    $0x5c,%eax
  801cfe:	85 f6                	test   %esi,%esi
  801d00:	0f 84 ac 00 00 00    	je     801db2 <lwip_getsockopt+0xf9>
    sock_set_errno(sock, err);
  801d06:	0f be c0             	movsbl %al,%eax
  801d09:	89 43 10             	mov    %eax,0x10(%ebx)
  801d0c:	a3 e0 b1 b3 00       	mov    %eax,0xb3b1e0
    return -1;
  801d11:	b8 ff ff ff ff       	mov    $0xffffffff,%eax
  801d16:	e9 07 01 00 00       	jmp    801e22 <lwip_getsockopt+0x169>
    sock_set_errno(sock, EFAULT);
  801d1b:	c7 43 10 0e 00 00 00 	movl   $0xe,0x10(%ebx)
  801d22:	c7 05 e0 b1 b3 00 0e 	movl   $0xe,0xb3b1e0
  801d29:	00 00 00 
    return -1;
  801d2c:	b8 ff ff ff ff       	mov    $0xffffffff,%eax
  801d31:	e9 ec 00 00 00       	jmp    801e22 <lwip_getsockopt+0x169>
  801d36:	81 7d 10 08 10 00 00 	cmpl   $0x1008,0x10(%ebp)
  801d3d:	7e 34                	jle    801d73 <lwip_getsockopt+0xba>
  801d3f:	b8 5c 00 00 00       	mov    $0x5c,%eax
  801d44:	81 7d 10 0a 10 00 00 	cmpl   $0x100a,0x10(%ebp)
  801d4b:	75 b9                	jne    801d06 <lwip_getsockopt+0x4d>
        err = EINVAL;
  801d4d:	83 3f 04             	cmpl   $0x4,(%edi)
  801d50:	19 c0                	sbb    %eax,%eax
  801d52:	83 e0 16             	and    $0x16,%eax
      if ((sock->conn->type != NETCONN_UDP) ||
  801d55:	8b 13                	mov    (%ebx),%edx
  801d57:	83 3a 20             	cmpl   $0x20,(%edx)
  801d5a:	0f 85 fa 00 00 00    	jne    801e5a <lwip_getsockopt+0x1a1>
          ((udp_flags(sock->conn->pcb.udp) & UDP_FLAGS_UDPLITE) != 0)) {
  801d60:	8b 52 08             	mov    0x8(%edx),%edx
      if ((sock->conn->type != NETCONN_UDP) ||
  801d63:	f6 42 10 02          	testb  $0x2,0x10(%edx)
  801d67:	0f 85 f7 00 00 00    	jne    801e64 <lwip_getsockopt+0x1ab>
  if (err != ERR_OK) {
  801d6d:	84 c0                	test   %al,%al
  801d6f:	74 59                	je     801dca <lwip_getsockopt+0x111>
  801d71:	eb 93                	jmp    801d06 <lwip_getsockopt+0x4d>
  801d73:	81 7d 10 06 10 00 00 	cmpl   $0x1006,0x10(%ebp)
  801d7a:	7f 27                	jg     801da3 <lwip_getsockopt+0xea>
  801d7c:	8b 45 10             	mov    0x10(%ebp),%eax
  801d7f:	8d 48 fe             	lea    -0x2(%eax),%ecx
  801d82:	83 f9 1e             	cmp    $0x1e,%ecx
  801d85:	0f 87 c5 00 00 00    	ja     801e50 <lwip_getsockopt+0x197>
  801d8b:	b8 01 00 00 00       	mov    $0x1,%eax
  801d90:	d3 e0                	shl    %cl,%eax
  801d92:	a9 41 00 00 40       	test   $0x40000041,%eax
  801d97:	75 0a                	jne    801da3 <lwip_getsockopt+0xea>
  801d99:	b8 5c 00 00 00       	mov    $0x5c,%eax
  801d9e:	e9 63 ff ff ff       	jmp    801d06 <lwip_getsockopt+0x4d>
      if (*optlen < sizeof(int)) {
  801da3:	83 3f 03             	cmpl   $0x3,(%edi)
  801da6:	77 22                	ja     801dca <lwip_getsockopt+0x111>
        err = EINVAL;
  801da8:	b8 16 00 00 00       	mov    $0x16,%eax
  801dad:	e9 54 ff ff ff       	jmp    801d06 <lwip_getsockopt+0x4d>
  801db2:	8b 45 10             	mov    0x10(%ebp),%eax
  801db5:	83 e8 01             	sub    $0x1,%eax
  801db8:	83 f8 01             	cmp    $0x1,%eax
  801dbb:	0f 87 ad 00 00 00    	ja     801e6e <lwip_getsockopt+0x1b5>
      if (*optlen < sizeof(int)) {
  801dc1:	83 3f 03             	cmpl   $0x3,(%edi)
  801dc4:	0f 86 ae 00 00 00    	jbe    801e78 <lwip_getsockopt+0x1bf>
  data.sock = sock;
  801dca:	89 5d cc             	mov    %ebx,-0x34(%ebp)
  data.level = level;
  801dcd:	89 75 d4             	mov    %esi,-0x2c(%ebp)
  data.optname = optname;
  801dd0:	8b 45 10             	mov    0x10(%ebp),%eax
  801dd3:	89 45 d8             	mov    %eax,-0x28(%ebp)
  data.optval = optval;
  801dd6:	8b 45 14             	mov    0x14(%ebp),%eax
  801dd9:	89 45 dc             	mov    %eax,-0x24(%ebp)
  data.optlen = optlen;
  801ddc:	89 7d e0             	mov    %edi,-0x20(%ebp)
  data.err = err;
  801ddf:	c6 45 e4 00          	movb   $0x0,-0x1c(%ebp)
  tcpip_callback(lwip_getsockopt_internal, &data);
  801de3:	83 ec 04             	sub    $0x4,%esp
  801de6:	6a 01                	push   $0x1
  801de8:	8d 45 cc             	lea    -0x34(%ebp),%eax
  801deb:	50                   	push   %eax
  801dec:	68 5c 0c 80 00       	push   $0x800c5c
  801df1:	e8 09 06 00 00       	call   8023ff <tcpip_callback_with_block>
  sys_arch_sem_wait(sock->conn->op_completed, 0);
  801df6:	83 c4 08             	add    $0x8,%esp
  801df9:	6a 00                	push   $0x0
  801dfb:	8b 03                	mov    (%ebx),%eax
  801dfd:	ff 70 10             	pushl  0x10(%eax)
  801e00:	e8 dc 85 00 00       	call   80a3e1 <sys_arch_sem_wait>
  err = data.err;
  801e05:	0f b6 45 e4          	movzbl -0x1c(%ebp),%eax
  sock_set_errno(sock, err);
  801e09:	0f be d0             	movsbl %al,%edx
  801e0c:	89 53 10             	mov    %edx,0x10(%ebx)
  801e0f:	89 15 e0 b1 b3 00    	mov    %edx,0xb3b1e0
  return err ? -1 : 0;
  801e15:	83 c4 10             	add    $0x10,%esp
  801e18:	84 c0                	test   %al,%al
  801e1a:	0f 95 c0             	setne  %al
  801e1d:	0f b6 c0             	movzbl %al,%eax
  801e20:	f7 d8                	neg    %eax
}
  801e22:	8d 65 f4             	lea    -0xc(%ebp),%esp
  801e25:	5b                   	pop    %ebx
  801e26:	5e                   	pop    %esi
  801e27:	5f                   	pop    %edi
  801e28:	5d                   	pop    %ebp
  801e29:	c3                   	ret    
    if (*optlen < sizeof(int)) {
  801e2a:	83 3f 03             	cmpl   $0x3,(%edi)
  801e2d:	76 53                	jbe    801e82 <lwip_getsockopt+0x1c9>
    if (sock->conn->type != NETCONN_TCP)
  801e2f:	8b 10                	mov    (%eax),%edx
      return 0;
  801e31:	b8 00 00 00 00       	mov    $0x0,%eax
    if (sock->conn->type != NETCONN_TCP)
  801e36:	83 3a 10             	cmpl   $0x10,(%edx)
  801e39:	75 e7                	jne    801e22 <lwip_getsockopt+0x169>
  801e3b:	8b 45 10             	mov    0x10(%ebp),%eax
  801e3e:	83 e8 01             	sub    $0x1,%eax
  801e41:	83 f8 01             	cmp    $0x1,%eax
  801e44:	76 84                	jbe    801dca <lwip_getsockopt+0x111>
      err = ENOPROTOOPT;
  801e46:	b8 5c 00 00 00       	mov    $0x5c,%eax
  801e4b:	e9 b6 fe ff ff       	jmp    801d06 <lwip_getsockopt+0x4d>
  801e50:	b8 5c 00 00 00       	mov    $0x5c,%eax
  801e55:	e9 ac fe ff ff       	jmp    801d06 <lwip_getsockopt+0x4d>
        err = EAFNOSUPPORT;
  801e5a:	b8 61 00 00 00       	mov    $0x61,%eax
  801e5f:	e9 a2 fe ff ff       	jmp    801d06 <lwip_getsockopt+0x4d>
  801e64:	b8 61 00 00 00       	mov    $0x61,%eax
  801e69:	e9 98 fe ff ff       	jmp    801d06 <lwip_getsockopt+0x4d>
      err = ENOPROTOOPT;
  801e6e:	b8 5c 00 00 00       	mov    $0x5c,%eax
  801e73:	e9 8e fe ff ff       	jmp    801d06 <lwip_getsockopt+0x4d>
        err = EINVAL;
  801e78:	b8 16 00 00 00       	mov    $0x16,%eax
  801e7d:	e9 84 fe ff ff       	jmp    801d06 <lwip_getsockopt+0x4d>
      err = EINVAL;
  801e82:	b8 16 00 00 00       	mov    $0x16,%eax
  801e87:	e9 7a fe ff ff       	jmp    801d06 <lwip_getsockopt+0x4d>
    return -1;
  801e8c:	b8 ff ff ff ff       	mov    $0xffffffff,%eax
  801e91:	eb 8f                	jmp    801e22 <lwip_getsockopt+0x169>

00801e93 <lwip_setsockopt>:
{
  801e93:	f3 0f 1e fb          	endbr32 
  801e97:	55                   	push   %ebp
  801e98:	89 e5                	mov    %esp,%ebp
  801e9a:	57                   	push   %edi
  801e9b:	56                   	push   %esi
  801e9c:	53                   	push   %ebx
  801e9d:	83 ec 2c             	sub    $0x2c,%esp
  801ea0:	8b 75 0c             	mov    0xc(%ebp),%esi
  801ea3:	8b 7d 14             	mov    0x14(%ebp),%edi
  struct lwip_socket *sock = get_socket(s);
  801ea6:	8b 45 08             	mov    0x8(%ebp),%eax
  801ea9:	e8 74 e9 ff ff       	call   800822 <get_socket>
  if (!sock)
  801eae:	85 c0                	test   %eax,%eax
  801eb0:	0f 84 69 01 00 00    	je     80201f <lwip_setsockopt+0x18c>
  801eb6:	89 c3                	mov    %eax,%ebx
  if (NULL == optval) {
  801eb8:	85 ff                	test   %edi,%edi
  801eba:	74 2c                	je     801ee8 <lwip_setsockopt+0x55>
  switch (level) {
  801ebc:	83 fe 06             	cmp    $0x6,%esi
  801ebf:	0f 84 01 01 00 00    	je     801fc6 <lwip_setsockopt+0x133>
  801ec5:	81 fe ff 0f 00 00    	cmp    $0xfff,%esi
  801ecb:	74 36                	je     801f03 <lwip_setsockopt+0x70>
  801ecd:	b8 5c 00 00 00       	mov    $0x5c,%eax
  801ed2:	85 f6                	test   %esi,%esi
  801ed4:	74 7b                	je     801f51 <lwip_setsockopt+0xbe>
    sock_set_errno(sock, err);
  801ed6:	89 43 10             	mov    %eax,0x10(%ebx)
  801ed9:	a3 e0 b1 b3 00       	mov    %eax,0xb3b1e0
    return -1;
  801ede:	b8 ff ff ff ff       	mov    $0xffffffff,%eax
  801ee3:	e9 d6 00 00 00       	jmp    801fbe <lwip_setsockopt+0x12b>
    sock_set_errno(sock, EFAULT);
  801ee8:	c7 40 10 0e 00 00 00 	movl   $0xe,0x10(%eax)
  801eef:	c7 05 e0 b1 b3 00 0e 	movl   $0xe,0xb3b1e0
  801ef6:	00 00 00 
    return -1;
  801ef9:	b8 ff ff ff ff       	mov    $0xffffffff,%eax
  801efe:	e9 bb 00 00 00       	jmp    801fbe <lwip_setsockopt+0x12b>
  801f03:	83 7d 10 20          	cmpl   $0x20,0x10(%ebp)
  801f07:	74 14                	je     801f1d <lwip_setsockopt+0x8a>
  801f09:	81 7d 10 0a 10 00 00 	cmpl   $0x100a,0x10(%ebp)
  801f10:	74 18                	je     801f2a <lwip_setsockopt+0x97>
  801f12:	b8 5c 00 00 00       	mov    $0x5c,%eax
  801f17:	83 7d 10 08          	cmpl   $0x8,0x10(%ebp)
  801f1b:	75 b9                	jne    801ed6 <lwip_setsockopt+0x43>
      if (optlen < sizeof(int)) {
  801f1d:	83 7d 18 03          	cmpl   $0x3,0x18(%ebp)
  801f21:	77 47                	ja     801f6a <lwip_setsockopt+0xd7>
        err = EINVAL;
  801f23:	b8 16 00 00 00       	mov    $0x16,%eax
  801f28:	eb ac                	jmp    801ed6 <lwip_setsockopt+0x43>
        err = EINVAL;
  801f2a:	83 7d 18 04          	cmpl   $0x4,0x18(%ebp)
  801f2e:	19 c0                	sbb    %eax,%eax
  801f30:	83 e0 16             	and    $0x16,%eax
      if ((sock->conn->type != NETCONN_UDP) ||
  801f33:	8b 13                	mov    (%ebx),%edx
  801f35:	83 3a 20             	cmpl   $0x20,(%edx)
  801f38:	0f 85 af 00 00 00    	jne    801fed <lwip_setsockopt+0x15a>
          ((udp_flags(sock->conn->pcb.udp) & UDP_FLAGS_UDPLITE) != 0)) {
  801f3e:	8b 52 08             	mov    0x8(%edx),%edx
      if ((sock->conn->type != NETCONN_UDP) ||
  801f41:	f6 42 10 02          	testb  $0x2,0x10(%edx)
  801f45:	0f 85 ac 00 00 00    	jne    801ff7 <lwip_setsockopt+0x164>
  if (err != ERR_OK) {
  801f4b:	85 c0                	test   %eax,%eax
  801f4d:	74 1b                	je     801f6a <lwip_setsockopt+0xd7>
  801f4f:	eb 85                	jmp    801ed6 <lwip_setsockopt+0x43>
  801f51:	8b 45 10             	mov    0x10(%ebp),%eax
  801f54:	83 e8 01             	sub    $0x1,%eax
  801f57:	83 f8 01             	cmp    $0x1,%eax
  801f5a:	0f 87 a1 00 00 00    	ja     802001 <lwip_setsockopt+0x16e>
      if (optlen < sizeof(int)) {
  801f60:	83 7d 18 03          	cmpl   $0x3,0x18(%ebp)
  801f64:	0f 86 a1 00 00 00    	jbe    80200b <lwip_setsockopt+0x178>
  data.sock = sock;
  801f6a:	89 5d cc             	mov    %ebx,-0x34(%ebp)
  data.level = level;
  801f6d:	89 75 d4             	mov    %esi,-0x2c(%ebp)
  data.optname = optname;
  801f70:	8b 45 10             	mov    0x10(%ebp),%eax
  801f73:	89 45 d8             	mov    %eax,-0x28(%ebp)
  data.optval = (void*)optval;
  801f76:	89 7d dc             	mov    %edi,-0x24(%ebp)
  data.optlen = &optlen;
  801f79:	8d 45 18             	lea    0x18(%ebp),%eax
  801f7c:	89 45 e0             	mov    %eax,-0x20(%ebp)
  data.err = err;
  801f7f:	c6 45 e4 00          	movb   $0x0,-0x1c(%ebp)
  tcpip_callback(lwip_setsockopt_internal, &data);
  801f83:	83 ec 04             	sub    $0x4,%esp
  801f86:	6a 01                	push   $0x1
  801f88:	8d 45 cc             	lea    -0x34(%ebp),%eax
  801f8b:	50                   	push   %eax
  801f8c:	68 ef 0d 80 00       	push   $0x800def
  801f91:	e8 69 04 00 00       	call   8023ff <tcpip_callback_with_block>
  sys_arch_sem_wait(sock->conn->op_completed, 0);
  801f96:	83 c4 08             	add    $0x8,%esp
  801f99:	6a 00                	push   $0x0
  801f9b:	8b 03                	mov    (%ebx),%eax
  801f9d:	ff 70 10             	pushl  0x10(%eax)
  801fa0:	e8 3c 84 00 00       	call   80a3e1 <sys_arch_sem_wait>
  err = data.err;
  801fa5:	0f be 45 e4          	movsbl -0x1c(%ebp),%eax
  sock_set_errno(sock, err);
  801fa9:	89 43 10             	mov    %eax,0x10(%ebx)
  801fac:	a3 e0 b1 b3 00       	mov    %eax,0xb3b1e0
  return err ? -1 : 0;
  801fb1:	83 c4 10             	add    $0x10,%esp
  801fb4:	85 c0                	test   %eax,%eax
  801fb6:	0f 95 c0             	setne  %al
  801fb9:	0f b6 c0             	movzbl %al,%eax
  801fbc:	f7 d8                	neg    %eax
}
  801fbe:	8d 65 f4             	lea    -0xc(%ebp),%esp
  801fc1:	5b                   	pop    %ebx
  801fc2:	5e                   	pop    %esi
  801fc3:	5f                   	pop    %edi
  801fc4:	5d                   	pop    %ebp
  801fc5:	c3                   	ret    
    if (optlen < sizeof(int)) {
  801fc6:	83 7d 18 03          	cmpl   $0x3,0x18(%ebp)
  801fca:	76 49                	jbe    802015 <lwip_setsockopt+0x182>
    if (sock->conn->type != NETCONN_TCP)
  801fcc:	8b 10                	mov    (%eax),%edx
      return 0;
  801fce:	b8 00 00 00 00       	mov    $0x0,%eax
    if (sock->conn->type != NETCONN_TCP)
  801fd3:	83 3a 10             	cmpl   $0x10,(%edx)
  801fd6:	75 e6                	jne    801fbe <lwip_setsockopt+0x12b>
  801fd8:	8b 45 10             	mov    0x10(%ebp),%eax
  801fdb:	83 e8 01             	sub    $0x1,%eax
  801fde:	83 f8 01             	cmp    $0x1,%eax
  801fe1:	76 87                	jbe    801f6a <lwip_setsockopt+0xd7>
      err = ENOPROTOOPT;
  801fe3:	b8 5c 00 00 00       	mov    $0x5c,%eax
  801fe8:	e9 e9 fe ff ff       	jmp    801ed6 <lwip_setsockopt+0x43>
        err = EAFNOSUPPORT;
  801fed:	b8 61 00 00 00       	mov    $0x61,%eax
  801ff2:	e9 df fe ff ff       	jmp    801ed6 <lwip_setsockopt+0x43>
  801ff7:	b8 61 00 00 00       	mov    $0x61,%eax
  801ffc:	e9 d5 fe ff ff       	jmp    801ed6 <lwip_setsockopt+0x43>
        err = ENOPROTOOPT;
  802001:	b8 5c 00 00 00       	mov    $0x5c,%eax
  802006:	e9 cb fe ff ff       	jmp    801ed6 <lwip_setsockopt+0x43>
        err = EINVAL;
  80200b:	b8 16 00 00 00       	mov    $0x16,%eax
  802010:	e9 c1 fe ff ff       	jmp    801ed6 <lwip_setsockopt+0x43>
      err = EINVAL;
  802015:	b8 16 00 00 00       	mov    $0x16,%eax
  80201a:	e9 b7 fe ff ff       	jmp    801ed6 <lwip_setsockopt+0x43>
    return -1;
  80201f:	b8 ff ff ff ff       	mov    $0xffffffff,%eax
  802024:	eb 98                	jmp    801fbe <lwip_setsockopt+0x12b>

00802026 <lwip_ioctl>:

int
lwip_ioctl(int s, long cmd, void *argp)
{
  802026:	f3 0f 1e fb          	endbr32 
  80202a:	55                   	push   %ebp
  80202b:	89 e5                	mov    %esp,%ebp
  80202d:	56                   	push   %esi
  80202e:	53                   	push   %ebx
  80202f:	8b 5d 0c             	mov    0xc(%ebp),%ebx
  802032:	8b 75 10             	mov    0x10(%ebp),%esi
  struct lwip_socket *sock = get_socket(s);
  802035:	8b 45 08             	mov    0x8(%ebp),%eax
  802038:	e8 e5 e7 ff ff       	call   800822 <get_socket>
  u16_t buflen = 0;

  if (!sock)
  80203d:	85 c0                	test   %eax,%eax
  80203f:	0f 84 b4 00 00 00    	je     8020f9 <lwip_ioctl+0xd3>
    return -1;

  switch (cmd) {
  802045:	81 fb 7e 66 04 80    	cmp    $0x8004667e,%ebx
  80204b:	74 5d                	je     8020aa <lwip_ioctl+0x84>
  80204d:	81 fb 7f 66 04 40    	cmp    $0x4004667f,%ebx
  802053:	0f 85 88 00 00 00    	jne    8020e1 <lwip_ioctl+0xbb>
  case FIONREAD:
    if (!argp) {
  802059:	85 f6                	test   %esi,%esi
  80205b:	74 35                	je     802092 <lwip_ioctl+0x6c>
      sock_set_errno(sock, EINVAL);
      return -1;
    }

    SYS_ARCH_GET(sock->conn->recv_avail, *((u16_t*)argp));
  80205d:	8b 10                	mov    (%eax),%edx
  80205f:	0f b7 52 20          	movzwl 0x20(%edx),%edx
  802063:	66 89 16             	mov    %dx,(%esi)

    /* Check if there is data left from the last recv operation. /maq 041215 */
    if (sock->lastdata) {
  802066:	8b 48 04             	mov    0x4(%eax),%ecx
  802069:	85 c9                	test   %ecx,%ecx
  80206b:	74 0d                	je     80207a <lwip_ioctl+0x54>
      buflen = netbuf_len(sock->lastdata);
  80206d:	8b 09                	mov    (%ecx),%ecx
      buflen -= sock->lastoffset;

      *((u16_t*)argp) += buflen;
  80206f:	66 2b 50 08          	sub    0x8(%eax),%dx
  802073:	66 03 51 08          	add    0x8(%ecx),%dx
  802077:	66 89 16             	mov    %dx,(%esi)
    }

    LWIP_DEBUGF(SOCKETS_DEBUG, ("lwip_ioctl(%d, FIONREAD, %p) = %u\n", s, argp, *((u16_t*)argp)));
    sock_set_errno(sock, 0);
  80207a:	c7 40 10 00 00 00 00 	movl   $0x0,0x10(%eax)
  802081:	c7 05 e0 b1 b3 00 00 	movl   $0x0,0xb3b1e0
  802088:	00 00 00 
    return 0;
  80208b:	b8 00 00 00 00       	mov    $0x0,%eax
  802090:	eb 4b                	jmp    8020dd <lwip_ioctl+0xb7>
      sock_set_errno(sock, EINVAL);
  802092:	c7 40 10 16 00 00 00 	movl   $0x16,0x10(%eax)
  802099:	c7 05 e0 b1 b3 00 16 	movl   $0x16,0xb3b1e0
  8020a0:	00 00 00 
      return -1;
  8020a3:	b8 ff ff ff ff       	mov    $0xffffffff,%eax
  8020a8:	eb 33                	jmp    8020dd <lwip_ioctl+0xb7>

  case FIONBIO:
    if (argp && *(u32_t*)argp)
  8020aa:	85 f6                	test   %esi,%esi
  8020ac:	74 0e                	je     8020bc <lwip_ioctl+0x96>
  8020ae:	83 3e 00             	cmpl   $0x0,(%esi)
  8020b1:	74 09                	je     8020bc <lwip_ioctl+0x96>
      sock->flags |= O_NONBLOCK;
  8020b3:	0f b7 50 0e          	movzwl 0xe(%eax),%edx
  8020b7:	80 ce 08             	or     $0x8,%dh
  8020ba:	eb 07                	jmp    8020c3 <lwip_ioctl+0x9d>
    else
      sock->flags &= ~O_NONBLOCK;
  8020bc:	0f b7 50 0e          	movzwl 0xe(%eax),%edx
  8020c0:	80 e6 f7             	and    $0xf7,%dh
  8020c3:	66 89 50 0e          	mov    %dx,0xe(%eax)
    LWIP_DEBUGF(SOCKETS_DEBUG, ("lwip_ioctl(%d, FIONBIO, %d)\n", s, !!(sock->flags & O_NONBLOCK)));
    sock_set_errno(sock, 0);
  8020c7:	c7 40 10 00 00 00 00 	movl   $0x0,0x10(%eax)
  8020ce:	c7 05 e0 b1 b3 00 00 	movl   $0x0,0xb3b1e0
  8020d5:	00 00 00 
    return 0;
  8020d8:	b8 00 00 00 00       	mov    $0x0,%eax
  default:
    LWIP_DEBUGF(SOCKETS_DEBUG, ("lwip_ioctl(%d, UNIMPL: 0x%lx, %p)\n", s, cmd, argp));
    sock_set_errno(sock, ENOSYS); /* not yet implemented */
    return -1;
  } /* switch (cmd) */
}
  8020dd:	5b                   	pop    %ebx
  8020de:	5e                   	pop    %esi
  8020df:	5d                   	pop    %ebp
  8020e0:	c3                   	ret    
    sock_set_errno(sock, ENOSYS); /* not yet implemented */
  8020e1:	c7 40 10 26 00 00 00 	movl   $0x26,0x10(%eax)
  8020e8:	c7 05 e0 b1 b3 00 26 	movl   $0x26,0xb3b1e0
  8020ef:	00 00 00 
    return -1;
  8020f2:	b8 ff ff ff ff       	mov    $0xffffffff,%eax
  8020f7:	eb e4                	jmp    8020dd <lwip_ioctl+0xb7>
    return -1;
  8020f9:	b8 ff ff ff ff       	mov    $0xffffffff,%eax
  8020fe:	eb dd                	jmp    8020dd <lwip_ioctl+0xb7>

00802100 <tcpip_tcp_timer>:
 *
 * @param arg unused argument
 */
static void
tcpip_tcp_timer(void *arg)
{
  802100:	f3 0f 1e fb          	endbr32 
  802104:	55                   	push   %ebp
  802105:	89 e5                	mov    %esp,%ebp
  802107:	83 ec 08             	sub    $0x8,%esp
  LWIP_UNUSED_ARG(arg);

  /* call TCP timer handler */
  tcp_tmr();
  80210a:	e8 26 42 00 00       	call   806335 <tcp_tmr>
  /* timer still needed? */
  if (tcp_active_pcbs || tcp_tw_pcbs) {
  80210f:	83 3d 3c b2 b3 00 00 	cmpl   $0x0,0xb3b23c
  802116:	74 19                	je     802131 <tcpip_tcp_timer+0x31>
    /* restart timer */
    sys_timeout(TCP_TMR_INTERVAL, tcpip_tcp_timer, NULL);
  802118:	83 ec 04             	sub    $0x4,%esp
  80211b:	6a 00                	push   $0x0
  80211d:	68 00 21 80 00       	push   $0x802100
  802122:	68 fa 00 00 00       	push   $0xfa
  802127:	e8 89 32 00 00       	call   8053b5 <sys_timeout>
  80212c:	83 c4 10             	add    $0x10,%esp
  } else {
    /* disable timer */
    tcpip_tcp_timer_active = 0;
  }
}
  80212f:	c9                   	leave  
  802130:	c3                   	ret    
  if (tcp_active_pcbs || tcp_tw_pcbs) {
  802131:	83 3d 50 b2 b3 00 00 	cmpl   $0x0,0xb3b250
  802138:	75 de                	jne    802118 <tcpip_tcp_timer+0x18>
    tcpip_tcp_timer_active = 0;
  80213a:	c7 05 e0 52 81 00 00 	movl   $0x0,0x8152e0
  802141:	00 00 00 
}
  802144:	eb e9                	jmp    80212f <tcpip_tcp_timer+0x2f>

00802146 <tcpip_thread>:
 *
 * @param arg unused argument
 */
static void
tcpip_thread(void *arg)
{
  802146:	f3 0f 1e fb          	endbr32 
  80214a:	55                   	push   %ebp
  80214b:	89 e5                	mov    %esp,%ebp
  80214d:	53                   	push   %ebx
  80214e:	83 ec 18             	sub    $0x18,%esp
  struct tcpip_msg *msg;
  LWIP_UNUSED_ARG(arg);

#if IP_REASSEMBLY
  sys_timeout(IP_TMR_INTERVAL, ip_reass_timer, NULL);
  802151:	6a 00                	push   $0x0
  802153:	68 07 23 80 00       	push   $0x802307
  802158:	68 e8 03 00 00       	push   $0x3e8
  80215d:	e8 53 32 00 00       	call   8053b5 <sys_timeout>
#endif /* IP_REASSEMBLY */
#if LWIP_ARP
  sys_timeout(ARP_TMR_INTERVAL, arp_timer, NULL);
  802162:	83 c4 0c             	add    $0xc,%esp
  802165:	6a 00                	push   $0x0
  802167:	68 df 22 80 00       	push   $0x8022df
  80216c:	68 88 13 00 00       	push   $0x1388
  802171:	e8 3f 32 00 00       	call   8053b5 <sys_timeout>
#endif /* LWIP_ARP */
#if LWIP_DHCP
  sys_timeout(DHCP_COARSE_TIMER_MSECS, dhcp_timer_coarse, NULL);
  802176:	83 c4 0c             	add    $0xc,%esp
  802179:	6a 00                	push   $0x0
  80217b:	68 b7 22 80 00       	push   $0x8022b7
  802180:	68 60 ea 00 00       	push   $0xea60
  802185:	e8 2b 32 00 00       	call   8053b5 <sys_timeout>
  sys_timeout(DHCP_FINE_TIMER_MSECS, dhcp_timer_fine, NULL);
  80218a:	83 c4 0c             	add    $0xc,%esp
  80218d:	6a 00                	push   $0x0
  80218f:	68 8f 22 80 00       	push   $0x80228f
  802194:	68 f4 01 00 00       	push   $0x1f4
  802199:	e8 17 32 00 00       	call   8053b5 <sys_timeout>
#endif /* LWIP_IGMP */
#if LWIP_DNS
  sys_timeout(DNS_TMR_INTERVAL, dns_timer, NULL);
#endif /* LWIP_DNS */

  if (tcpip_init_done != NULL) {
  80219e:	a1 e8 52 81 00       	mov    0x8152e8,%eax
  8021a3:	83 c4 10             	add    $0x10,%esp
  8021a6:	85 c0                	test   %eax,%eax
  8021a8:	74 0e                	je     8021b8 <tcpip_thread+0x72>
    tcpip_init_done(tcpip_init_done_arg);
  8021aa:	83 ec 0c             	sub    $0xc,%esp
  8021ad:	ff 35 e4 52 81 00    	pushl  0x8152e4
  8021b3:	ff d0                	call   *%eax
  8021b5:	83 c4 10             	add    $0x10,%esp
  }

  LOCK_TCPIP_CORE();
  while (1) {                          /* MAIN Loop */
    sys_mbox_fetch(mbox, (void *)&msg);
  8021b8:	8d 5d f4             	lea    -0xc(%ebp),%ebx
  8021bb:	eb 44                	jmp    802201 <tcpip_thread+0xbb>
    switch (msg->type) {
  8021bd:	83 f8 03             	cmp    $0x3,%eax
  8021c0:	75 3f                	jne    802201 <tcpip_thread+0xbb>
      break;

    case TCPIP_MSG_TIMEOUT:
      LWIP_DEBUGF(TCPIP_DEBUG, ("tcpip_thread: TIMEOUT %p\n", (void *)msg));

      if(msg->msg.tmo.msecs != 0xffffffff)
  8021c2:	8b 42 08             	mov    0x8(%edx),%eax
  8021c5:	83 f8 ff             	cmp    $0xffffffff,%eax
  8021c8:	0f 84 ab 00 00 00    	je     802279 <tcpip_thread+0x133>
        sys_timeout (msg->msg.tmo.msecs, msg->msg.tmo.h, msg->msg.tmo.arg);
  8021ce:	83 ec 04             	sub    $0x4,%esp
  8021d1:	ff 72 10             	pushl  0x10(%edx)
  8021d4:	ff 72 0c             	pushl  0xc(%edx)
  8021d7:	50                   	push   %eax
  8021d8:	e8 d8 31 00 00       	call   8053b5 <sys_timeout>
  8021dd:	83 c4 10             	add    $0x10,%esp
      else
        sys_untimeout (msg->msg.tmo.h, msg->msg.tmo.arg);
      memp_free(MEMP_TCPIP_MSG_API, msg);
  8021e0:	83 ec 08             	sub    $0x8,%esp
  8021e3:	ff 75 f4             	pushl  -0xc(%ebp)
  8021e6:	6a 08                	push   $0x8
  8021e8:	e8 ab 24 00 00       	call   804698 <memp_free>
      break;
  8021ed:	83 c4 10             	add    $0x10,%esp
  8021f0:	eb 0f                	jmp    802201 <tcpip_thread+0xbb>
      msg->msg.apimsg->function(&(msg->msg.apimsg->msg));
  8021f2:	8b 42 08             	mov    0x8(%edx),%eax
  8021f5:	83 ec 0c             	sub    $0xc,%esp
  8021f8:	8d 50 04             	lea    0x4(%eax),%edx
  8021fb:	52                   	push   %edx
  8021fc:	ff 10                	call   *(%eax)
      break;
  8021fe:	83 c4 10             	add    $0x10,%esp
    sys_mbox_fetch(mbox, (void *)&msg);
  802201:	83 ec 08             	sub    $0x8,%esp
  802204:	53                   	push   %ebx
  802205:	ff 35 00 40 81 00    	pushl  0x814000
  80220b:	e8 75 30 00 00       	call   805285 <sys_mbox_fetch>
    switch (msg->type) {
  802210:	8b 55 f4             	mov    -0xc(%ebp),%edx
  802213:	8b 02                	mov    (%edx),%eax
  802215:	83 c4 10             	add    $0x10,%esp
  802218:	83 f8 02             	cmp    $0x2,%eax
  80221b:	74 41                	je     80225e <tcpip_thread+0x118>
  80221d:	77 9e                	ja     8021bd <tcpip_thread+0x77>
  80221f:	85 c0                	test   %eax,%eax
  802221:	74 cf                	je     8021f2 <tcpip_thread+0xac>
      if (msg->msg.inp.netif->flags & NETIF_FLAG_ETHARP) {
  802223:	8b 42 0c             	mov    0xc(%edx),%eax
  802226:	f6 40 2e 20          	testb  $0x20,0x2e(%eax)
  80222a:	74 21                	je     80224d <tcpip_thread+0x107>
        ethernet_input(msg->msg.inp.p, msg->msg.inp.netif);
  80222c:	83 ec 08             	sub    $0x8,%esp
  80222f:	50                   	push   %eax
  802230:	ff 72 08             	pushl  0x8(%edx)
  802233:	e8 af 7c 00 00       	call   809ee7 <ethernet_input>
  802238:	83 c4 10             	add    $0x10,%esp
      memp_free(MEMP_TCPIP_MSG_INPKT, msg);
  80223b:	83 ec 08             	sub    $0x8,%esp
  80223e:	ff 75 f4             	pushl  -0xc(%ebp)
  802241:	6a 09                	push   $0x9
  802243:	e8 50 24 00 00       	call   804698 <memp_free>
      break;
  802248:	83 c4 10             	add    $0x10,%esp
  80224b:	eb b4                	jmp    802201 <tcpip_thread+0xbb>
      { ip_input(msg->msg.inp.p, msg->msg.inp.netif);
  80224d:	83 ec 08             	sub    $0x8,%esp
  802250:	50                   	push   %eax
  802251:	ff 72 08             	pushl  0x8(%edx)
  802254:	e8 26 45 00 00       	call   80677f <ip_input>
  802259:	83 c4 10             	add    $0x10,%esp
  80225c:	eb dd                	jmp    80223b <tcpip_thread+0xf5>
      msg->msg.cb.f(msg->msg.cb.ctx);
  80225e:	83 ec 0c             	sub    $0xc,%esp
  802261:	ff 72 0c             	pushl  0xc(%edx)
  802264:	ff 52 08             	call   *0x8(%edx)
      memp_free(MEMP_TCPIP_MSG_API, msg);
  802267:	83 c4 08             	add    $0x8,%esp
  80226a:	ff 75 f4             	pushl  -0xc(%ebp)
  80226d:	6a 08                	push   $0x8
  80226f:	e8 24 24 00 00       	call   804698 <memp_free>
      break;
  802274:	83 c4 10             	add    $0x10,%esp
  802277:	eb 88                	jmp    802201 <tcpip_thread+0xbb>
        sys_untimeout (msg->msg.tmo.h, msg->msg.tmo.arg);
  802279:	83 ec 08             	sub    $0x8,%esp
  80227c:	ff 72 10             	pushl  0x10(%edx)
  80227f:	ff 72 0c             	pushl  0xc(%edx)
  802282:	e8 ed 31 00 00       	call   805474 <sys_untimeout>
  802287:	83 c4 10             	add    $0x10,%esp
  80228a:	e9 51 ff ff ff       	jmp    8021e0 <tcpip_thread+0x9a>

0080228f <dhcp_timer_fine>:
{
  80228f:	f3 0f 1e fb          	endbr32 
  802293:	55                   	push   %ebp
  802294:	89 e5                	mov    %esp,%ebp
  802296:	83 ec 08             	sub    $0x8,%esp
  dhcp_fine_tmr();
  802299:	e8 a1 1b 00 00       	call   803e3f <dhcp_fine_tmr>
  sys_timeout(DHCP_FINE_TIMER_MSECS, dhcp_timer_fine, NULL);
  80229e:	83 ec 04             	sub    $0x4,%esp
  8022a1:	6a 00                	push   $0x0
  8022a3:	68 8f 22 80 00       	push   $0x80228f
  8022a8:	68 f4 01 00 00       	push   $0x1f4
  8022ad:	e8 03 31 00 00       	call   8053b5 <sys_timeout>
}
  8022b2:	83 c4 10             	add    $0x10,%esp
  8022b5:	c9                   	leave  
  8022b6:	c3                   	ret    

008022b7 <dhcp_timer_coarse>:
{
  8022b7:	f3 0f 1e fb          	endbr32 
  8022bb:	55                   	push   %ebp
  8022bc:	89 e5                	mov    %esp,%ebp
  8022be:	83 ec 08             	sub    $0x8,%esp
  dhcp_coarse_tmr();
  8022c1:	e8 a5 19 00 00       	call   803c6b <dhcp_coarse_tmr>
  sys_timeout(DHCP_COARSE_TIMER_MSECS, dhcp_timer_coarse, NULL);
  8022c6:	83 ec 04             	sub    $0x4,%esp
  8022c9:	6a 00                	push   $0x0
  8022cb:	68 b7 22 80 00       	push   $0x8022b7
  8022d0:	68 60 ea 00 00       	push   $0xea60
  8022d5:	e8 db 30 00 00       	call   8053b5 <sys_timeout>
}
  8022da:	83 c4 10             	add    $0x10,%esp
  8022dd:	c9                   	leave  
  8022de:	c3                   	ret    

008022df <arp_timer>:
{
  8022df:	f3 0f 1e fb          	endbr32 
  8022e3:	55                   	push   %ebp
  8022e4:	89 e5                	mov    %esp,%ebp
  8022e6:	83 ec 08             	sub    $0x8,%esp
  etharp_tmr();
  8022e9:	e8 a9 74 00 00       	call   809797 <etharp_tmr>
  sys_timeout(ARP_TMR_INTERVAL, arp_timer, NULL);
  8022ee:	83 ec 04             	sub    $0x4,%esp
  8022f1:	6a 00                	push   $0x0
  8022f3:	68 df 22 80 00       	push   $0x8022df
  8022f8:	68 88 13 00 00       	push   $0x1388
  8022fd:	e8 b3 30 00 00       	call   8053b5 <sys_timeout>
}
  802302:	83 c4 10             	add    $0x10,%esp
  802305:	c9                   	leave  
  802306:	c3                   	ret    

00802307 <ip_reass_timer>:
{
  802307:	f3 0f 1e fb          	endbr32 
  80230b:	55                   	push   %ebp
  80230c:	89 e5                	mov    %esp,%ebp
  80230e:	83 ec 08             	sub    $0x8,%esp
  ip_reass_tmr();
  802311:	e8 59 4b 00 00       	call   806e6f <ip_reass_tmr>
  sys_timeout(IP_TMR_INTERVAL, ip_reass_timer, NULL);
  802316:	83 ec 04             	sub    $0x4,%esp
  802319:	6a 00                	push   $0x0
  80231b:	68 07 23 80 00       	push   $0x802307
  802320:	68 e8 03 00 00       	push   $0x3e8
  802325:	e8 8b 30 00 00       	call   8053b5 <sys_timeout>
}
  80232a:	83 c4 10             	add    $0x10,%esp
  80232d:	c9                   	leave  
  80232e:	c3                   	ret    

0080232f <pbuf_free_int>:
 *
 * @param p The pbuf (chain) to be dereferenced.
 */
static void
pbuf_free_int(void *p)
{
  80232f:	f3 0f 1e fb          	endbr32 
  802333:	55                   	push   %ebp
  802334:	89 e5                	mov    %esp,%ebp
  802336:	83 ec 14             	sub    $0x14,%esp
  struct pbuf *q = p;
  pbuf_free(q);
  802339:	ff 75 08             	pushl  0x8(%ebp)
  80233c:	e8 da 26 00 00       	call   804a1b <pbuf_free>
}
  802341:	83 c4 10             	add    $0x10,%esp
  802344:	c9                   	leave  
  802345:	c3                   	ret    

00802346 <tcp_timer_needed>:
{
  802346:	f3 0f 1e fb          	endbr32 
  if (!tcpip_tcp_timer_active && (tcp_active_pcbs || tcp_tw_pcbs)) {
  80234a:	83 3d e0 52 81 00 00 	cmpl   $0x0,0x8152e0
  802351:	75 38                	jne    80238b <tcp_timer_needed+0x45>
  802353:	83 3d 3c b2 b3 00 00 	cmpl   $0x0,0xb3b23c
  80235a:	74 26                	je     802382 <tcp_timer_needed+0x3c>
{
  80235c:	55                   	push   %ebp
  80235d:	89 e5                	mov    %esp,%ebp
  80235f:	83 ec 0c             	sub    $0xc,%esp
    tcpip_tcp_timer_active = 1;
  802362:	c7 05 e0 52 81 00 01 	movl   $0x1,0x8152e0
  802369:	00 00 00 
    sys_timeout(TCP_TMR_INTERVAL, tcpip_tcp_timer, NULL);
  80236c:	6a 00                	push   $0x0
  80236e:	68 00 21 80 00       	push   $0x802100
  802373:	68 fa 00 00 00       	push   $0xfa
  802378:	e8 38 30 00 00       	call   8053b5 <sys_timeout>
  80237d:	83 c4 10             	add    $0x10,%esp
}
  802380:	c9                   	leave  
  802381:	c3                   	ret    
  if (!tcpip_tcp_timer_active && (tcp_active_pcbs || tcp_tw_pcbs)) {
  802382:	83 3d 50 b2 b3 00 00 	cmpl   $0x0,0xb3b250
  802389:	75 d1                	jne    80235c <tcp_timer_needed+0x16>
  80238b:	c3                   	ret    

0080238c <tcpip_input>:
{
  80238c:	f3 0f 1e fb          	endbr32 
  if (mbox != SYS_MBOX_NULL) {
  802390:	83 3d 00 40 81 00 ff 	cmpl   $0xffffffff,0x814000
  802397:	74 59                	je     8023f2 <tcpip_input+0x66>
{
  802399:	55                   	push   %ebp
  80239a:	89 e5                	mov    %esp,%ebp
  80239c:	53                   	push   %ebx
  80239d:	83 ec 10             	sub    $0x10,%esp
    msg = memp_malloc(MEMP_TCPIP_MSG_INPKT);
  8023a0:	6a 09                	push   $0x9
  8023a2:	e8 97 22 00 00       	call   80463e <memp_malloc>
  8023a7:	89 c3                	mov    %eax,%ebx
    if (msg == NULL) {
  8023a9:	83 c4 10             	add    $0x10,%esp
  8023ac:	85 c0                	test   %eax,%eax
  8023ae:	74 48                	je     8023f8 <tcpip_input+0x6c>
    msg->type = TCPIP_MSG_INPKT;
  8023b0:	c7 00 01 00 00 00    	movl   $0x1,(%eax)
    msg->msg.inp.p = p;
  8023b6:	8b 45 08             	mov    0x8(%ebp),%eax
  8023b9:	89 43 08             	mov    %eax,0x8(%ebx)
    msg->msg.inp.netif = inp;
  8023bc:	8b 45 0c             	mov    0xc(%ebp),%eax
  8023bf:	89 43 0c             	mov    %eax,0xc(%ebx)
    if (sys_mbox_trypost(mbox, msg) != ERR_OK) {
  8023c2:	83 ec 08             	sub    $0x8,%esp
  8023c5:	53                   	push   %ebx
  8023c6:	ff 35 00 40 81 00    	pushl  0x814000
  8023cc:	e8 24 81 00 00       	call   80a4f5 <sys_mbox_trypost>
  8023d1:	83 c4 10             	add    $0x10,%esp
  8023d4:	84 c0                	test   %al,%al
  8023d6:	75 05                	jne    8023dd <tcpip_input+0x51>
}
  8023d8:	8b 5d fc             	mov    -0x4(%ebp),%ebx
  8023db:	c9                   	leave  
  8023dc:	c3                   	ret    
      memp_free(MEMP_TCPIP_MSG_INPKT, msg);
  8023dd:	83 ec 08             	sub    $0x8,%esp
  8023e0:	53                   	push   %ebx
  8023e1:	6a 09                	push   $0x9
  8023e3:	e8 b0 22 00 00       	call   804698 <memp_free>
      return ERR_MEM;
  8023e8:	83 c4 10             	add    $0x10,%esp
  8023eb:	b8 ff ff ff ff       	mov    $0xffffffff,%eax
  8023f0:	eb e6                	jmp    8023d8 <tcpip_input+0x4c>
  return ERR_VAL;
  8023f2:	b8 f7 ff ff ff       	mov    $0xfffffff7,%eax
}
  8023f7:	c3                   	ret    
      return ERR_MEM;
  8023f8:	b8 ff ff ff ff       	mov    $0xffffffff,%eax
  8023fd:	eb d9                	jmp    8023d8 <tcpip_input+0x4c>

008023ff <tcpip_callback_with_block>:
{
  8023ff:	f3 0f 1e fb          	endbr32 
  802403:	55                   	push   %ebp
  802404:	89 e5                	mov    %esp,%ebp
  802406:	56                   	push   %esi
  802407:	53                   	push   %ebx
  802408:	8b 75 10             	mov    0x10(%ebp),%esi
  if (mbox != SYS_MBOX_NULL) {
  80240b:	83 3d 00 40 81 00 ff 	cmpl   $0xffffffff,0x814000
  802412:	74 76                	je     80248a <tcpip_callback_with_block+0x8b>
    msg = memp_malloc(MEMP_TCPIP_MSG_API);
  802414:	83 ec 0c             	sub    $0xc,%esp
  802417:	6a 08                	push   $0x8
  802419:	e8 20 22 00 00       	call   80463e <memp_malloc>
  80241e:	89 c3                	mov    %eax,%ebx
    if (msg == NULL) {
  802420:	83 c4 10             	add    $0x10,%esp
  802423:	85 c0                	test   %eax,%eax
  802425:	74 6a                	je     802491 <tcpip_callback_with_block+0x92>
    msg->type = TCPIP_MSG_CALLBACK;
  802427:	c7 00 02 00 00 00    	movl   $0x2,(%eax)
    msg->msg.cb.f = f;
  80242d:	8b 45 08             	mov    0x8(%ebp),%eax
  802430:	89 43 08             	mov    %eax,0x8(%ebx)
    msg->msg.cb.ctx = ctx;
  802433:	8b 45 0c             	mov    0xc(%ebp),%eax
  802436:	89 43 0c             	mov    %eax,0xc(%ebx)
    if (block) {
  802439:	89 f0                	mov    %esi,%eax
  80243b:	84 c0                	test   %al,%al
  80243d:	75 1d                	jne    80245c <tcpip_callback_with_block+0x5d>
      if (sys_mbox_trypost(mbox, msg) != ERR_OK) {
  80243f:	83 ec 08             	sub    $0x8,%esp
  802442:	53                   	push   %ebx
  802443:	ff 35 00 40 81 00    	pushl  0x814000
  802449:	e8 a7 80 00 00       	call   80a4f5 <sys_mbox_trypost>
  80244e:	83 c4 10             	add    $0x10,%esp
  802451:	84 c0                	test   %al,%al
  802453:	75 20                	jne    802475 <tcpip_callback_with_block+0x76>
}
  802455:	8d 65 f8             	lea    -0x8(%ebp),%esp
  802458:	5b                   	pop    %ebx
  802459:	5e                   	pop    %esi
  80245a:	5d                   	pop    %ebp
  80245b:	c3                   	ret    
      sys_mbox_post(mbox, msg);
  80245c:	83 ec 08             	sub    $0x8,%esp
  80245f:	53                   	push   %ebx
  802460:	ff 35 00 40 81 00    	pushl  0x814000
  802466:	e8 53 81 00 00       	call   80a5be <sys_mbox_post>
  80246b:	83 c4 10             	add    $0x10,%esp
    return ERR_OK;
  80246e:	b8 00 00 00 00       	mov    $0x0,%eax
  802473:	eb e0                	jmp    802455 <tcpip_callback_with_block+0x56>
        memp_free(MEMP_TCPIP_MSG_API, msg);
  802475:	83 ec 08             	sub    $0x8,%esp
  802478:	53                   	push   %ebx
  802479:	6a 08                	push   $0x8
  80247b:	e8 18 22 00 00       	call   804698 <memp_free>
        return ERR_MEM;
  802480:	83 c4 10             	add    $0x10,%esp
  802483:	b8 ff ff ff ff       	mov    $0xffffffff,%eax
  802488:	eb cb                	jmp    802455 <tcpip_callback_with_block+0x56>
  return ERR_VAL;
  80248a:	b8 f7 ff ff ff       	mov    $0xfffffff7,%eax
  80248f:	eb c4                	jmp    802455 <tcpip_callback_with_block+0x56>
      return ERR_MEM;
  802491:	b8 ff ff ff ff       	mov    $0xffffffff,%eax
  802496:	eb bd                	jmp    802455 <tcpip_callback_with_block+0x56>

00802498 <tcpip_timeout>:
{
  802498:	f3 0f 1e fb          	endbr32 
  if (mbox != SYS_MBOX_NULL) {
  80249c:	83 3d 00 40 81 00 ff 	cmpl   $0xffffffff,0x814000
  8024a3:	74 45                	je     8024ea <tcpip_timeout+0x52>
{
  8024a5:	55                   	push   %ebp
  8024a6:	89 e5                	mov    %esp,%ebp
  8024a8:	83 ec 14             	sub    $0x14,%esp
    msg = memp_malloc(MEMP_TCPIP_MSG_API);
  8024ab:	6a 08                	push   $0x8
  8024ad:	e8 8c 21 00 00       	call   80463e <memp_malloc>
    if (msg == NULL) {
  8024b2:	83 c4 10             	add    $0x10,%esp
  8024b5:	85 c0                	test   %eax,%eax
  8024b7:	74 37                	je     8024f0 <tcpip_timeout+0x58>
    msg->type = TCPIP_MSG_TIMEOUT;
  8024b9:	c7 00 03 00 00 00    	movl   $0x3,(%eax)
    msg->msg.tmo.msecs = msecs;
  8024bf:	8b 55 08             	mov    0x8(%ebp),%edx
  8024c2:	89 50 08             	mov    %edx,0x8(%eax)
    msg->msg.tmo.h = h;
  8024c5:	8b 55 0c             	mov    0xc(%ebp),%edx
  8024c8:	89 50 0c             	mov    %edx,0xc(%eax)
    msg->msg.tmo.arg = arg;
  8024cb:	8b 55 10             	mov    0x10(%ebp),%edx
  8024ce:	89 50 10             	mov    %edx,0x10(%eax)
    sys_mbox_post(mbox, msg);
  8024d1:	83 ec 08             	sub    $0x8,%esp
  8024d4:	50                   	push   %eax
  8024d5:	ff 35 00 40 81 00    	pushl  0x814000
  8024db:	e8 de 80 00 00       	call   80a5be <sys_mbox_post>
    return ERR_OK;
  8024e0:	83 c4 10             	add    $0x10,%esp
  8024e3:	b8 00 00 00 00       	mov    $0x0,%eax
}
  8024e8:	c9                   	leave  
  8024e9:	c3                   	ret    
  return ERR_VAL;
  8024ea:	b8 f7 ff ff ff       	mov    $0xfffffff7,%eax
}
  8024ef:	c3                   	ret    
      return ERR_MEM;
  8024f0:	b8 ff ff ff ff       	mov    $0xffffffff,%eax
  8024f5:	eb f1                	jmp    8024e8 <tcpip_timeout+0x50>

008024f7 <tcpip_apimsg>:
{
  8024f7:	f3 0f 1e fb          	endbr32 
  8024fb:	55                   	push   %ebp
  8024fc:	89 e5                	mov    %esp,%ebp
  8024fe:	53                   	push   %ebx
  8024ff:	83 ec 24             	sub    $0x24,%esp
  802502:	8b 5d 08             	mov    0x8(%ebp),%ebx
  if (mbox != SYS_MBOX_NULL) {
  802505:	a1 00 40 81 00       	mov    0x814000,%eax
  80250a:	83 f8 ff             	cmp    $0xffffffff,%eax
  80250d:	74 34                	je     802543 <tcpip_apimsg+0x4c>
    msg.type = TCPIP_MSG_API;
  80250f:	c7 45 e4 00 00 00 00 	movl   $0x0,-0x1c(%ebp)
    msg.msg.apimsg = apimsg;
  802516:	89 5d ec             	mov    %ebx,-0x14(%ebp)
    sys_mbox_post(mbox, &msg);
  802519:	83 ec 08             	sub    $0x8,%esp
  80251c:	8d 55 e4             	lea    -0x1c(%ebp),%edx
  80251f:	52                   	push   %edx
  802520:	50                   	push   %eax
  802521:	e8 98 80 00 00       	call   80a5be <sys_mbox_post>
    sys_arch_sem_wait(apimsg->msg.conn->op_completed, 0);
  802526:	83 c4 08             	add    $0x8,%esp
  802529:	6a 00                	push   $0x0
  80252b:	8b 43 04             	mov    0x4(%ebx),%eax
  80252e:	ff 70 10             	pushl  0x10(%eax)
  802531:	e8 ab 7e 00 00       	call   80a3e1 <sys_arch_sem_wait>
    return ERR_OK;
  802536:	83 c4 10             	add    $0x10,%esp
  802539:	b8 00 00 00 00       	mov    $0x0,%eax
}
  80253e:	8b 5d fc             	mov    -0x4(%ebp),%ebx
  802541:	c9                   	leave  
  802542:	c3                   	ret    
  return ERR_VAL;
  802543:	b8 f7 ff ff ff       	mov    $0xfffffff7,%eax
  802548:	eb f4                	jmp    80253e <tcpip_apimsg+0x47>

0080254a <tcpip_init>:
{
  80254a:	f3 0f 1e fb          	endbr32 
  80254e:	55                   	push   %ebp
  80254f:	89 e5                	mov    %esp,%ebp
  802551:	83 ec 08             	sub    $0x8,%esp
  lwip_init();
  802554:	e8 96 03 00 00       	call   8028ef <lwip_init>
  tcpip_init_done = initfunc;
  802559:	8b 45 08             	mov    0x8(%ebp),%eax
  80255c:	a3 e8 52 81 00       	mov    %eax,0x8152e8
  tcpip_init_done_arg = arg;
  802561:	8b 45 0c             	mov    0xc(%ebp),%eax
  802564:	a3 e4 52 81 00       	mov    %eax,0x8152e4
  mbox = sys_mbox_new(TCPIP_MBOX_SIZE);
  802569:	83 ec 0c             	sub    $0xc,%esp
  80256c:	6a 00                	push   $0x0
  80256e:	e8 e2 7c 00 00       	call   80a255 <sys_mbox_new>
  802573:	a3 00 40 81 00       	mov    %eax,0x814000
  sys_thread_new(TCPIP_THREAD_NAME, tcpip_thread, NULL, TCPIP_THREAD_STACKSIZE, TCPIP_THREAD_PRIO);
  802578:	c7 04 24 01 00 00 00 	movl   $0x1,(%esp)
  80257f:	6a 00                	push   $0x0
  802581:	6a 00                	push   $0x0
  802583:	68 46 21 80 00       	push   $0x802146
  802588:	68 5c 15 81 00       	push   $0x81155c
  80258d:	e8 6b 81 00 00       	call   80a6fd <sys_thread_new>
}
  802592:	83 c4 20             	add    $0x20,%esp
  802595:	c9                   	leave  
  802596:	c3                   	ret    

00802597 <pbuf_free_callback>:
 * @param p The pbuf (chain) to be dereferenced.
 * @return ERR_OK if callback could be enqueued, an err_t if not
 */
err_t
pbuf_free_callback(struct pbuf *p)
{
  802597:	f3 0f 1e fb          	endbr32 
  80259b:	55                   	push   %ebp
  80259c:	89 e5                	mov    %esp,%ebp
  80259e:	83 ec 0c             	sub    $0xc,%esp
  return tcpip_callback_with_block(pbuf_free_int, p, 0);
  8025a1:	6a 00                	push   $0x0
  8025a3:	ff 75 08             	pushl  0x8(%ebp)
  8025a6:	68 2f 23 80 00       	push   $0x80232f
  8025ab:	e8 4f fe ff ff       	call   8023ff <tcpip_callback_with_block>
}
  8025b0:	c9                   	leave  
  8025b1:	c3                   	ret    

008025b2 <mem_free_callback>:
 * @param m the heap memory to free
 * @return ERR_OK if callback could be enqueued, an err_t if not
 */
err_t
mem_free_callback(void *m)
{
  8025b2:	f3 0f 1e fb          	endbr32 
  8025b6:	55                   	push   %ebp
  8025b7:	89 e5                	mov    %esp,%ebp
  8025b9:	83 ec 0c             	sub    $0xc,%esp
  return tcpip_callback_with_block(mem_free, m, 0);
  8025bc:	6a 00                	push   $0x0
  8025be:	ff 75 08             	pushl  0x8(%ebp)
  8025c1:	68 e6 40 80 00       	push   $0x8040e6
  8025c6:	e8 34 fe ff ff       	call   8023ff <tcpip_callback_with_block>
}
  8025cb:	c9                   	leave  
  8025cc:	c3                   	ret    

008025cd <netbuf_new>:
 * @return a pointer to a new netbuf
 *         NULL on lack of memory
 */
struct
netbuf *netbuf_new(void)
{
  8025cd:	f3 0f 1e fb          	endbr32 
  8025d1:	55                   	push   %ebp
  8025d2:	89 e5                	mov    %esp,%ebp
  8025d4:	83 ec 14             	sub    $0x14,%esp
  struct netbuf *buf;

  buf = memp_malloc(MEMP_NETBUF);
  8025d7:	6a 06                	push   $0x6
  8025d9:	e8 60 20 00 00       	call   80463e <memp_malloc>
  if (buf != NULL) {
  8025de:	83 c4 10             	add    $0x10,%esp
  8025e1:	85 c0                	test   %eax,%eax
  8025e3:	74 14                	je     8025f9 <netbuf_new+0x2c>
    buf->p = NULL;
  8025e5:	c7 00 00 00 00 00    	movl   $0x0,(%eax)
    buf->ptr = NULL;
  8025eb:	c7 40 04 00 00 00 00 	movl   $0x0,0x4(%eax)
    buf->addr = NULL;
  8025f2:	c7 40 08 00 00 00 00 	movl   $0x0,0x8(%eax)
    return buf;
  } else {
    return NULL;
  }
}
  8025f9:	c9                   	leave  
  8025fa:	c3                   	ret    

008025fb <netbuf_delete>:
 *
 * @param buf pointer to a netbuf allocated by netbuf_new()
 */
void
netbuf_delete(struct netbuf *buf)
{
  8025fb:	f3 0f 1e fb          	endbr32 
  8025ff:	55                   	push   %ebp
  802600:	89 e5                	mov    %esp,%ebp
  802602:	53                   	push   %ebx
  802603:	83 ec 04             	sub    $0x4,%esp
  802606:	8b 5d 08             	mov    0x8(%ebp),%ebx
  if (buf != NULL) {
  802609:	85 db                	test   %ebx,%ebx
  80260b:	74 2d                	je     80263a <netbuf_delete+0x3f>
    if (buf->p != NULL) {
  80260d:	8b 03                	mov    (%ebx),%eax
  80260f:	85 c0                	test   %eax,%eax
  802611:	74 19                	je     80262c <netbuf_delete+0x31>
      pbuf_free(buf->p);
  802613:	83 ec 0c             	sub    $0xc,%esp
  802616:	50                   	push   %eax
  802617:	e8 ff 23 00 00       	call   804a1b <pbuf_free>
      buf->p = buf->ptr = NULL;
  80261c:	c7 43 04 00 00 00 00 	movl   $0x0,0x4(%ebx)
  802623:	c7 03 00 00 00 00    	movl   $0x0,(%ebx)
  802629:	83 c4 10             	add    $0x10,%esp
    }
    memp_free(MEMP_NETBUF, buf);
  80262c:	83 ec 08             	sub    $0x8,%esp
  80262f:	53                   	push   %ebx
  802630:	6a 06                	push   $0x6
  802632:	e8 61 20 00 00       	call   804698 <memp_free>
  802637:	83 c4 10             	add    $0x10,%esp
  }
}
  80263a:	8b 5d fc             	mov    -0x4(%ebp),%ebx
  80263d:	c9                   	leave  
  80263e:	c3                   	ret    

0080263f <netbuf_alloc>:
 * @return pointer to the allocated memory
 *         NULL if no memory could be allocated
 */
void *
netbuf_alloc(struct netbuf *buf, u16_t size)
{
  80263f:	f3 0f 1e fb          	endbr32 
  802643:	55                   	push   %ebp
  802644:	89 e5                	mov    %esp,%ebp
  802646:	56                   	push   %esi
  802647:	53                   	push   %ebx
  802648:	8b 5d 08             	mov    0x8(%ebp),%ebx
  80264b:	8b 75 0c             	mov    0xc(%ebp),%esi
  LWIP_ERROR("netbuf_alloc: invalid buf", (buf != NULL), return NULL;);
  80264e:	85 db                	test   %ebx,%ebx
  802650:	74 3e                	je     802690 <netbuf_alloc+0x51>

  /* Deallocate any previously allocated memory. */
  if (buf->p != NULL) {
  802652:	8b 03                	mov    (%ebx),%eax
  802654:	85 c0                	test   %eax,%eax
  802656:	74 0c                	je     802664 <netbuf_alloc+0x25>
    pbuf_free(buf->p);
  802658:	83 ec 0c             	sub    $0xc,%esp
  80265b:	50                   	push   %eax
  80265c:	e8 ba 23 00 00       	call   804a1b <pbuf_free>
  802661:	83 c4 10             	add    $0x10,%esp
  }
  buf->p = pbuf_alloc(PBUF_TRANSPORT, size, PBUF_RAM);
  802664:	83 ec 04             	sub    $0x4,%esp
  802667:	6a 00                	push   $0x0
  802669:	0f b7 c6             	movzwl %si,%eax
  80266c:	50                   	push   %eax
  80266d:	6a 00                	push   $0x0
  80266f:	e8 71 24 00 00       	call   804ae5 <pbuf_alloc>
  802674:	89 03                	mov    %eax,(%ebx)
  if (buf->p == NULL) {
  802676:	83 c4 10             	add    $0x10,%esp
  802679:	85 c0                	test   %eax,%eax
  80267b:	74 0c                	je     802689 <netbuf_alloc+0x4a>
     return NULL;
  }
  LWIP_ASSERT("check that first pbuf can hold size",
  80267d:	66 39 70 0a          	cmp    %si,0xa(%eax)
  802681:	72 21                	jb     8026a4 <netbuf_alloc+0x65>
             (buf->p->len >= size));
  buf->ptr = buf->p;
  802683:	89 43 04             	mov    %eax,0x4(%ebx)
  return buf->p->payload;
  802686:	8b 40 04             	mov    0x4(%eax),%eax
}
  802689:	8d 65 f8             	lea    -0x8(%ebp),%esp
  80268c:	5b                   	pop    %ebx
  80268d:	5e                   	pop    %esi
  80268e:	5d                   	pop    %ebp
  80268f:	c3                   	ret    
  LWIP_ERROR("netbuf_alloc: invalid buf", (buf != NULL), return NULL;);
  802690:	83 ec 04             	sub    $0x4,%esp
  802693:	68 69 15 81 00       	push   $0x811569
  802698:	6a 63                	push   $0x63
  80269a:	68 83 15 81 00       	push   $0x811583
  80269f:	e8 93 c2 00 00       	call   80e937 <_panic>
  LWIP_ASSERT("check that first pbuf can hold size",
  8026a4:	83 ec 04             	sub    $0x4,%esp
  8026a7:	68 50 16 81 00       	push   $0x811650
  8026ac:	6a 6d                	push   $0x6d
  8026ae:	68 83 15 81 00       	push   $0x811583
  8026b3:	e8 7f c2 00 00       	call   80e937 <_panic>

008026b8 <netbuf_free>:
 *
 * @param buf pointer to the netbuf which contains the packet buffer to free
 */
void
netbuf_free(struct netbuf *buf)
{
  8026b8:	f3 0f 1e fb          	endbr32 
  8026bc:	55                   	push   %ebp
  8026bd:	89 e5                	mov    %esp,%ebp
  8026bf:	53                   	push   %ebx
  8026c0:	83 ec 04             	sub    $0x4,%esp
  8026c3:	8b 5d 08             	mov    0x8(%ebp),%ebx
  LWIP_ERROR("netbuf_free: invalid buf", (buf != NULL), return;);
  8026c6:	85 db                	test   %ebx,%ebx
  8026c8:	74 24                	je     8026ee <netbuf_free+0x36>
  if (buf->p != NULL) {
  8026ca:	8b 03                	mov    (%ebx),%eax
  8026cc:	85 c0                	test   %eax,%eax
  8026ce:	74 0c                	je     8026dc <netbuf_free+0x24>
    pbuf_free(buf->p);
  8026d0:	83 ec 0c             	sub    $0xc,%esp
  8026d3:	50                   	push   %eax
  8026d4:	e8 42 23 00 00       	call   804a1b <pbuf_free>
  8026d9:	83 c4 10             	add    $0x10,%esp
  }
  buf->p = buf->ptr = NULL;
  8026dc:	c7 43 04 00 00 00 00 	movl   $0x0,0x4(%ebx)
  8026e3:	c7 03 00 00 00 00    	movl   $0x0,(%ebx)
}
  8026e9:	8b 5d fc             	mov    -0x4(%ebp),%ebx
  8026ec:	c9                   	leave  
  8026ed:	c3                   	ret    
  LWIP_ERROR("netbuf_free: invalid buf", (buf != NULL), return;);
  8026ee:	83 ec 04             	sub    $0x4,%esp
  8026f1:	68 99 15 81 00       	push   $0x811599
  8026f6:	6a 7b                	push   $0x7b
  8026f8:	68 83 15 81 00       	push   $0x811583
  8026fd:	e8 35 c2 00 00       	call   80e937 <_panic>

00802702 <netbuf_ref>:
 * @return ERR_OK if data is referenced
 *         ERR_MEM if data couldn't be referenced due to lack of memory
 */
err_t
netbuf_ref(struct netbuf *buf, const void *dataptr, u16_t size)
{
  802702:	f3 0f 1e fb          	endbr32 
  802706:	55                   	push   %ebp
  802707:	89 e5                	mov    %esp,%ebp
  802709:	56                   	push   %esi
  80270a:	53                   	push   %ebx
  80270b:	8b 5d 08             	mov    0x8(%ebp),%ebx
  80270e:	8b 75 10             	mov    0x10(%ebp),%esi
  LWIP_ERROR("netbuf_ref: invalid buf", (buf != NULL), return ERR_ARG;);
  802711:	85 db                	test   %ebx,%ebx
  802713:	74 4c                	je     802761 <netbuf_ref+0x5f>
  if (buf->p != NULL) {
  802715:	8b 03                	mov    (%ebx),%eax
  802717:	85 c0                	test   %eax,%eax
  802719:	74 0c                	je     802727 <netbuf_ref+0x25>
    pbuf_free(buf->p);
  80271b:	83 ec 0c             	sub    $0xc,%esp
  80271e:	50                   	push   %eax
  80271f:	e8 f7 22 00 00       	call   804a1b <pbuf_free>
  802724:	83 c4 10             	add    $0x10,%esp
  }
  buf->p = pbuf_alloc(PBUF_TRANSPORT, 0, PBUF_REF);
  802727:	83 ec 04             	sub    $0x4,%esp
  80272a:	6a 02                	push   $0x2
  80272c:	6a 00                	push   $0x0
  80272e:	6a 00                	push   $0x0
  802730:	e8 b0 23 00 00       	call   804ae5 <pbuf_alloc>
  802735:	89 03                	mov    %eax,(%ebx)
  if (buf->p == NULL) {
  802737:	83 c4 10             	add    $0x10,%esp
  80273a:	85 c0                	test   %eax,%eax
  80273c:	74 3a                	je     802778 <netbuf_ref+0x76>
    buf->ptr = NULL;
    return ERR_MEM;
  }
  buf->p->payload = (void*)dataptr;
  80273e:	8b 55 0c             	mov    0xc(%ebp),%edx
  802741:	89 50 04             	mov    %edx,0x4(%eax)
  buf->p->len = buf->p->tot_len = size;
  802744:	8b 03                	mov    (%ebx),%eax
  802746:	66 89 70 08          	mov    %si,0x8(%eax)
  80274a:	8b 03                	mov    (%ebx),%eax
  80274c:	66 89 70 0a          	mov    %si,0xa(%eax)
  buf->ptr = buf->p;
  802750:	8b 03                	mov    (%ebx),%eax
  802752:	89 43 04             	mov    %eax,0x4(%ebx)
  return ERR_OK;
  802755:	b8 00 00 00 00       	mov    $0x0,%eax
}
  80275a:	8d 65 f8             	lea    -0x8(%ebp),%esp
  80275d:	5b                   	pop    %ebx
  80275e:	5e                   	pop    %esi
  80275f:	5d                   	pop    %ebp
  802760:	c3                   	ret    
  LWIP_ERROR("netbuf_ref: invalid buf", (buf != NULL), return ERR_ARG;);
  802761:	83 ec 04             	sub    $0x4,%esp
  802764:	68 b2 15 81 00       	push   $0x8115b2
  802769:	68 8e 00 00 00       	push   $0x8e
  80276e:	68 83 15 81 00       	push   $0x811583
  802773:	e8 bf c1 00 00       	call   80e937 <_panic>
    buf->ptr = NULL;
  802778:	c7 43 04 00 00 00 00 	movl   $0x0,0x4(%ebx)
    return ERR_MEM;
  80277f:	b8 ff ff ff ff       	mov    $0xffffffff,%eax
  802784:	eb d4                	jmp    80275a <netbuf_ref+0x58>

00802786 <netbuf_chain>:
 * @param head the first netbuf
 * @param tail netbuf to chain after head
 */
void
netbuf_chain(struct netbuf *head, struct netbuf *tail)
{
  802786:	f3 0f 1e fb          	endbr32 
  80278a:	55                   	push   %ebp
  80278b:	89 e5                	mov    %esp,%ebp
  80278d:	56                   	push   %esi
  80278e:	53                   	push   %ebx
  80278f:	8b 5d 08             	mov    0x8(%ebp),%ebx
  802792:	8b 75 0c             	mov    0xc(%ebp),%esi
  LWIP_ERROR("netbuf_ref: invalid head", (head != NULL), return;);
  802795:	85 db                	test   %ebx,%ebx
  802797:	74 2a                	je     8027c3 <netbuf_chain+0x3d>
  LWIP_ERROR("netbuf_chain: invalid tail", (tail != NULL), return;);
  802799:	85 f6                	test   %esi,%esi
  80279b:	74 3d                	je     8027da <netbuf_chain+0x54>
  pbuf_chain(head->p, tail->p);
  80279d:	83 ec 08             	sub    $0x8,%esp
  8027a0:	ff 36                	pushl  (%esi)
  8027a2:	ff 33                	pushl  (%ebx)
  8027a4:	e8 54 27 00 00       	call   804efd <pbuf_chain>
  head->ptr = head->p;
  8027a9:	8b 03                	mov    (%ebx),%eax
  8027ab:	89 43 04             	mov    %eax,0x4(%ebx)
  memp_free(MEMP_NETBUF, tail);
  8027ae:	83 c4 08             	add    $0x8,%esp
  8027b1:	56                   	push   %esi
  8027b2:	6a 06                	push   $0x6
  8027b4:	e8 df 1e 00 00       	call   804698 <memp_free>
  8027b9:	83 c4 10             	add    $0x10,%esp
}
  8027bc:	8d 65 f8             	lea    -0x8(%ebp),%esp
  8027bf:	5b                   	pop    %ebx
  8027c0:	5e                   	pop    %esi
  8027c1:	5d                   	pop    %ebp
  8027c2:	c3                   	ret    
  LWIP_ERROR("netbuf_ref: invalid head", (head != NULL), return;);
  8027c3:	83 ec 04             	sub    $0x4,%esp
  8027c6:	68 ca 15 81 00       	push   $0x8115ca
  8027cb:	68 a6 00 00 00       	push   $0xa6
  8027d0:	68 83 15 81 00       	push   $0x811583
  8027d5:	e8 5d c1 00 00       	call   80e937 <_panic>
  LWIP_ERROR("netbuf_chain: invalid tail", (tail != NULL), return;);
  8027da:	83 ec 04             	sub    $0x4,%esp
  8027dd:	68 e3 15 81 00       	push   $0x8115e3
  8027e2:	68 a7 00 00 00       	push   $0xa7
  8027e7:	68 83 15 81 00       	push   $0x811583
  8027ec:	e8 46 c1 00 00       	call   80e937 <_panic>

008027f1 <netbuf_data>:
 * @return ERR_OK if the information was retreived,
 *         ERR_BUF on error.
 */
err_t
netbuf_data(struct netbuf *buf, void **dataptr, u16_t *len)
{
  8027f1:	f3 0f 1e fb          	endbr32 
  8027f5:	55                   	push   %ebp
  8027f6:	89 e5                	mov    %esp,%ebp
  8027f8:	53                   	push   %ebx
  8027f9:	83 ec 04             	sub    $0x4,%esp
  8027fc:	8b 45 08             	mov    0x8(%ebp),%eax
  8027ff:	8b 4d 0c             	mov    0xc(%ebp),%ecx
  802802:	8b 55 10             	mov    0x10(%ebp),%edx
  LWIP_ERROR("netbuf_data: invalid buf", (buf != NULL), return ERR_ARG;);
  802805:	85 c0                	test   %eax,%eax
  802807:	74 28                	je     802831 <netbuf_data+0x40>
  LWIP_ERROR("netbuf_data: invalid dataptr", (dataptr != NULL), return ERR_ARG;);
  802809:	85 c9                	test   %ecx,%ecx
  80280b:	74 3b                	je     802848 <netbuf_data+0x57>
  LWIP_ERROR("netbuf_data: invalid len", (len != NULL), return ERR_ARG;);
  80280d:	85 d2                	test   %edx,%edx
  80280f:	74 4e                	je     80285f <netbuf_data+0x6e>

  if (buf->ptr == NULL) {
  802811:	8b 58 04             	mov    0x4(%eax),%ebx
  802814:	85 db                	test   %ebx,%ebx
  802816:	74 5e                	je     802876 <netbuf_data+0x85>
    return ERR_BUF;
  }
  *dataptr = buf->ptr->payload;
  802818:	8b 5b 04             	mov    0x4(%ebx),%ebx
  80281b:	89 19                	mov    %ebx,(%ecx)
  *len = buf->ptr->len;
  80281d:	8b 40 04             	mov    0x4(%eax),%eax
  802820:	0f b7 40 0a          	movzwl 0xa(%eax),%eax
  802824:	66 89 02             	mov    %ax,(%edx)
  return ERR_OK;
  802827:	b8 00 00 00 00       	mov    $0x0,%eax
}
  80282c:	8b 5d fc             	mov    -0x4(%ebp),%ebx
  80282f:	c9                   	leave  
  802830:	c3                   	ret    
  LWIP_ERROR("netbuf_data: invalid buf", (buf != NULL), return ERR_ARG;);
  802831:	83 ec 04             	sub    $0x4,%esp
  802834:	68 fe 15 81 00       	push   $0x8115fe
  802839:	68 b9 00 00 00       	push   $0xb9
  80283e:	68 83 15 81 00       	push   $0x811583
  802843:	e8 ef c0 00 00       	call   80e937 <_panic>
  LWIP_ERROR("netbuf_data: invalid dataptr", (dataptr != NULL), return ERR_ARG;);
  802848:	83 ec 04             	sub    $0x4,%esp
  80284b:	68 17 16 81 00       	push   $0x811617
  802850:	68 ba 00 00 00       	push   $0xba
  802855:	68 83 15 81 00       	push   $0x811583
  80285a:	e8 d8 c0 00 00       	call   80e937 <_panic>
  LWIP_ERROR("netbuf_data: invalid len", (len != NULL), return ERR_ARG;);
  80285f:	83 ec 04             	sub    $0x4,%esp
  802862:	68 34 16 81 00       	push   $0x811634
  802867:	68 bb 00 00 00       	push   $0xbb
  80286c:	68 83 15 81 00       	push   $0x811583
  802871:	e8 c1 c0 00 00       	call   80e937 <_panic>
    return ERR_BUF;
  802876:	b8 fe ff ff ff       	mov    $0xfffffffe,%eax
  80287b:	eb af                	jmp    80282c <netbuf_data+0x3b>

0080287d <netbuf_next>:
 *         1  if moved to the next part but now there is no next part
 *         0  if moved to the next part and there are still more parts
 */
s8_t
netbuf_next(struct netbuf *buf)
{
  80287d:	f3 0f 1e fb          	endbr32 
  802881:	55                   	push   %ebp
  802882:	89 e5                	mov    %esp,%ebp
  802884:	83 ec 08             	sub    $0x8,%esp
  802887:	8b 45 08             	mov    0x8(%ebp),%eax
  LWIP_ERROR("netbuf_free: invalid buf", (buf != NULL), return -1;);
  80288a:	85 c0                	test   %eax,%eax
  80288c:	74 14                	je     8028a2 <netbuf_next+0x25>
  if (buf->ptr->next == NULL) {
  80288e:	8b 50 04             	mov    0x4(%eax),%edx
  802891:	8b 12                	mov    (%edx),%edx
  802893:	85 d2                	test   %edx,%edx
  802895:	74 22                	je     8028b9 <netbuf_next+0x3c>
    return -1;
  }
  buf->ptr = buf->ptr->next;
  802897:	89 50 04             	mov    %edx,0x4(%eax)
  if (buf->ptr->next == NULL) {
  80289a:	83 3a 00             	cmpl   $0x0,(%edx)
  80289d:	0f 94 c0             	sete   %al
    return 1;
  }
  return 0;
}
  8028a0:	c9                   	leave  
  8028a1:	c3                   	ret    
  LWIP_ERROR("netbuf_free: invalid buf", (buf != NULL), return -1;);
  8028a2:	83 ec 04             	sub    $0x4,%esp
  8028a5:	68 99 15 81 00       	push   $0x811599
  8028aa:	68 d2 00 00 00       	push   $0xd2
  8028af:	68 83 15 81 00       	push   $0x811583
  8028b4:	e8 7e c0 00 00       	call   80e937 <_panic>
    return -1;
  8028b9:	b8 ff ff ff ff       	mov    $0xffffffff,%eax
  8028be:	eb e0                	jmp    8028a0 <netbuf_next+0x23>

008028c0 <netbuf_first>:
 *
 * @param buf the netbuf to modify
 */
void
netbuf_first(struct netbuf *buf)
{
  8028c0:	f3 0f 1e fb          	endbr32 
  8028c4:	55                   	push   %ebp
  8028c5:	89 e5                	mov    %esp,%ebp
  8028c7:	83 ec 08             	sub    $0x8,%esp
  8028ca:	8b 45 08             	mov    0x8(%ebp),%eax
  LWIP_ERROR("netbuf_free: invalid buf", (buf != NULL), return;);
  8028cd:	85 c0                	test   %eax,%eax
  8028cf:	74 07                	je     8028d8 <netbuf_first+0x18>
  buf->ptr = buf->p;
  8028d1:	8b 10                	mov    (%eax),%edx
  8028d3:	89 50 04             	mov    %edx,0x4(%eax)
}
  8028d6:	c9                   	leave  
  8028d7:	c3                   	ret    
  LWIP_ERROR("netbuf_free: invalid buf", (buf != NULL), return;);
  8028d8:	83 ec 04             	sub    $0x4,%esp
  8028db:	68 99 15 81 00       	push   $0x811599
  8028e0:	68 e7 00 00 00       	push   $0xe7
  8028e5:	68 83 15 81 00       	push   $0x811583
  8028ea:	e8 48 c0 00 00       	call   80e937 <_panic>

008028ef <lwip_init>:
/**
 * Perform Sanity check of user-configurable values, and initialize all modules.
 */
void
lwip_init(void)
{
  8028ef:	f3 0f 1e fb          	endbr32 
  8028f3:	55                   	push   %ebp
  8028f4:	89 e5                	mov    %esp,%ebp
  8028f6:	83 ec 08             	sub    $0x8,%esp
  /* Sanity check user-configurable values */
  lwip_sanity_check();

  /* Modules initialization */
  stats_init();
  sys_init();
  8028f9:	e8 01 77 00 00       	call   809fff <sys_init>
  mem_init();
  8028fe:	e8 79 17 00 00       	call   80407c <mem_init>
  memp_init();
  802903:	e8 d6 1c 00 00       	call   8045de <memp_init>
  pbuf_init();
  netif_init();
#if LWIP_SOCKET
  lwip_socket_init();
  802908:	e8 f3 e5 ff ff       	call   800f00 <lwip_socket_init>
  igmp_init();
#endif /* LWIP_IGMP */
#if LWIP_DNS
  dns_init();
#endif /* LWIP_DNS */
}
  80290d:	c9                   	leave  
  80290e:	c3                   	ret    

0080290f <dhcp_set_state>:
 * TODO: we might also want to reset the timeout here?
 */
static void
dhcp_set_state(struct dhcp *dhcp, u8_t new_state)
{
  if (new_state != dhcp->state) {
  80290f:	38 10                	cmp    %dl,(%eax)
  802911:	74 06                	je     802919 <dhcp_set_state+0xa>
    dhcp->state = new_state;
  802913:	88 10                	mov    %dl,(%eax)
    dhcp->tries = 0;
  802915:	c6 40 01 00          	movb   $0x0,0x1(%eax)
  }
}
  802919:	c3                   	ret    

0080291a <dhcp_get_option_ptr>:
 *
 * @return a byte offset into the UDP message where the option was found, or
 * zero if the given option was not found.
 */
static u8_t *dhcp_get_option_ptr(struct dhcp *dhcp, u8_t option_type)
{
  80291a:	55                   	push   %ebp
  80291b:	89 e5                	mov    %esp,%ebp
  80291d:	57                   	push   %edi
  80291e:	56                   	push   %esi
  80291f:	53                   	push   %ebx
  802920:	83 ec 0c             	sub    $0xc,%esp
  802923:	89 45 e8             	mov    %eax,-0x18(%ebp)
  u8_t overload = DHCP_OVERLOAD_NONE;

  /* options available? */
  if ((dhcp->options_in != NULL) && (dhcp->options_in_len > 0)) {
  802926:	8b 48 14             	mov    0x14(%eax),%ecx
  802929:	85 c9                	test   %ecx,%ecx
  80292b:	74 19                	je     802946 <dhcp_get_option_ptr+0x2c>
  80292d:	89 d6                	mov    %edx,%esi
  80292f:	0f b7 78 18          	movzwl 0x18(%eax),%edi
    /* start with options field */
    u8_t *options = (u8_t *)dhcp->options_in;
    u16_t offset = 0;
  802933:	b8 00 00 00 00       	mov    $0x0,%eax
  u8_t overload = DHCP_OVERLOAD_NONE;
  802938:	c6 45 ef 00          	movb   $0x0,-0x11(%ebp)
  if ((dhcp->options_in != NULL) && (dhcp->options_in_len > 0)) {
  80293c:	66 85 ff             	test   %di,%di
  80293f:	75 2f                	jne    802970 <dhcp_get_option_ptr+0x56>
          offset += 1 + options[offset];
        }
      }
    }
  }
  return NULL;
  802941:	b9 00 00 00 00       	mov    $0x0,%ecx
}
  802946:	89 c8                	mov    %ecx,%eax
  802948:	83 c4 0c             	add    $0xc,%esp
  80294b:	5b                   	pop    %ebx
  80294c:	5e                   	pop    %esi
  80294d:	5f                   	pop    %edi
  80294e:	5d                   	pop    %ebp
  80294f:	c3                   	ret    
        offset += 2;
  802950:	8d 50 02             	lea    0x2(%eax),%edx
        overload = options[offset++];
  802953:	83 c0 03             	add    $0x3,%eax
  802956:	0f b7 d2             	movzwl %dx,%edx
  802959:	0f b6 1c 11          	movzbl (%ecx,%edx,1),%ebx
  80295d:	88 5d ef             	mov    %bl,-0x11(%ebp)
  802960:	eb 0e                	jmp    802970 <dhcp_get_option_ptr+0x56>
        offset++;
  802962:	8d 50 01             	lea    0x1(%eax),%edx
        offset += 1 + options[offset];
  802965:	0f b7 d2             	movzwl %dx,%edx
  802968:	0f b6 14 11          	movzbl (%ecx,%edx,1),%edx
  80296c:	8d 44 02 02          	lea    0x2(%edx,%eax,1),%eax
    while ((offset < dhcp->options_in_len) && (options[offset] != DHCP_OPTION_END)) {
  802970:	66 39 c7             	cmp    %ax,%di
  802973:	76 22                	jbe    802997 <dhcp_get_option_ptr+0x7d>
  802975:	0f b7 d8             	movzwl %ax,%ebx
  802978:	01 cb                	add    %ecx,%ebx
  80297a:	89 5d f0             	mov    %ebx,-0x10(%ebp)
  80297d:	0f b6 13             	movzbl (%ebx),%edx
  802980:	80 fa ff             	cmp    $0xff,%dl
  802983:	74 12                	je     802997 <dhcp_get_option_ptr+0x7d>
      if (options[offset] == DHCP_OPTION_OVERLOAD) {
  802985:	80 fa 34             	cmp    $0x34,%dl
  802988:	74 c6                	je     802950 <dhcp_get_option_ptr+0x36>
      else if (options[offset] == option_type) {
  80298a:	89 f3                	mov    %esi,%ebx
  80298c:	38 da                	cmp    %bl,%dl
  80298e:	75 d2                	jne    802962 <dhcp_get_option_ptr+0x48>
  802990:	8b 5d f0             	mov    -0x10(%ebp),%ebx
    while ((offset < dhcp->options_in_len) && (options[offset] != DHCP_OPTION_END)) {
  802993:	89 d9                	mov    %ebx,%ecx
  802995:	eb af                	jmp    802946 <dhcp_get_option_ptr+0x2c>
  return NULL;
  802997:	b9 00 00 00 00       	mov    $0x0,%ecx
    if (overload != DHCP_OVERLOAD_NONE) {
  80299c:	0f b6 45 ef          	movzbl -0x11(%ebp),%eax
  8029a0:	84 c0                	test   %al,%al
  8029a2:	74 a2                	je     802946 <dhcp_get_option_ptr+0x2c>
      if (overload == DHCP_OVERLOAD_FILE) {
  8029a4:	3c 01                	cmp    $0x1,%al
  8029a6:	74 54                	je     8029fc <dhcp_get_option_ptr+0xe2>
      } else if (overload == DHCP_OVERLOAD_SNAME) {
  8029a8:	80 7d ef 02          	cmpb   $0x2,-0x11(%ebp)
  8029ac:	74 5e                	je     802a0c <dhcp_get_option_ptr+0xf2>
        options = (u8_t *)&dhcp->msg_in->sname;
  8029ae:	8b 45 e8             	mov    -0x18(%ebp),%eax
  8029b1:	8b 58 10             	mov    0x10(%eax),%ebx
  8029b4:	83 c3 2c             	add    $0x2c,%ebx
        field_len = DHCP_FILE_LEN + DHCP_SNAME_LEN;
  8029b7:	bf c0 00 00 00       	mov    $0xc0,%edi
      offset = 0;
  8029bc:	ba 00 00 00 00       	mov    $0x0,%edx
  8029c1:	89 f0                	mov    %esi,%eax
  8029c3:	88 45 f0             	mov    %al,-0x10(%ebp)
      while ((offset < field_len) && (options[offset] != DHCP_OPTION_END)) {
  8029c6:	0f b7 ca             	movzwl %dx,%ecx
  8029c9:	01 d9                	add    %ebx,%ecx
  8029cb:	0f b6 31             	movzbl (%ecx),%esi
  8029ce:	89 f0                	mov    %esi,%eax
  8029d0:	3c ff                	cmp    $0xff,%al
  8029d2:	74 48                	je     802a1c <dhcp_get_option_ptr+0x102>
        if (options[offset] == option_type) {
  8029d4:	89 f0                	mov    %esi,%eax
  8029d6:	3a 45 f0             	cmp    -0x10(%ebp),%al
  8029d9:	0f 84 67 ff ff ff    	je     802946 <dhcp_get_option_ptr+0x2c>
          offset++;
  8029df:	8d 4a 01             	lea    0x1(%edx),%ecx
          offset += 1 + options[offset];
  8029e2:	0f b7 c9             	movzwl %cx,%ecx
  8029e5:	0f b6 0c 0b          	movzbl (%ebx,%ecx,1),%ecx
  8029e9:	8d 54 0a 02          	lea    0x2(%edx,%ecx,1),%edx
      while ((offset < field_len) && (options[offset] != DHCP_OPTION_END)) {
  8029ed:	66 39 d7             	cmp    %dx,%di
  8029f0:	77 d4                	ja     8029c6 <dhcp_get_option_ptr+0xac>
  return NULL;
  8029f2:	b9 00 00 00 00       	mov    $0x0,%ecx
  8029f7:	e9 4a ff ff ff       	jmp    802946 <dhcp_get_option_ptr+0x2c>
        options = (u8_t *)&dhcp->msg_in->file;
  8029fc:	8b 45 e8             	mov    -0x18(%ebp),%eax
  8029ff:	8b 58 10             	mov    0x10(%eax),%ebx
  802a02:	83 c3 6c             	add    $0x6c,%ebx
        field_len = DHCP_FILE_LEN;
  802a05:	bf 80 00 00 00       	mov    $0x80,%edi
  802a0a:	eb b0                	jmp    8029bc <dhcp_get_option_ptr+0xa2>
        options = (u8_t *)&dhcp->msg_in->sname;
  802a0c:	8b 45 e8             	mov    -0x18(%ebp),%eax
  802a0f:	8b 58 10             	mov    0x10(%eax),%ebx
  802a12:	83 c3 2c             	add    $0x2c,%ebx
        field_len = DHCP_SNAME_LEN;
  802a15:	bf 40 00 00 00       	mov    $0x40,%edi
  802a1a:	eb a0                	jmp    8029bc <dhcp_get_option_ptr+0xa2>
  return NULL;
  802a1c:	b9 00 00 00 00       	mov    $0x0,%ecx
  802a21:	e9 20 ff ff ff       	jmp    802946 <dhcp_get_option_ptr+0x2c>

00802a26 <dhcp_get_option_long>:
 * @param ptr pointer obtained by dhcp_get_option_ptr().
 *
 * @return byte value at the given address.
 */
static u32_t dhcp_get_option_long(u8_t *ptr)
{
  802a26:	89 c2                	mov    %eax,%edx
  u32_t value;
  value = (u32_t)(*ptr++) << 24;
  802a28:	0f b6 00             	movzbl (%eax),%eax
  802a2b:	c1 e0 18             	shl    $0x18,%eax
  802a2e:	89 c1                	mov    %eax,%ecx
  value |= (u32_t)(*ptr++) << 16;
  802a30:	0f b6 42 01          	movzbl 0x1(%edx),%eax
  802a34:	c1 e0 10             	shl    $0x10,%eax
  802a37:	09 c8                	or     %ecx,%eax
  value |= (u32_t)(*ptr++) << 8;
  value |= (u32_t)(*ptr++);
  802a39:	0f b6 4a 03          	movzbl 0x3(%edx),%ecx
  802a3d:	09 c8                	or     %ecx,%eax
  value |= (u32_t)(*ptr++) << 8;
  802a3f:	0f b6 52 02          	movzbl 0x2(%edx),%edx
  802a43:	c1 e2 08             	shl    $0x8,%edx
  value |= (u32_t)(*ptr++);
  802a46:	09 d0                	or     %edx,%eax
  LWIP_DEBUGF(DHCP_DEBUG, ("option long value=%"U32_F"\n", value));
  return value;
}
  802a48:	c3                   	ret    

00802a49 <dhcp_option_byte>:
{
  802a49:	55                   	push   %ebp
  802a4a:	89 e5                	mov    %esp,%ebp
  802a4c:	56                   	push   %esi
  802a4d:	53                   	push   %ebx
  LWIP_ASSERT("dhcp_option_byte: dhcp->options_out_len < DHCP_OPTIONS_LEN", dhcp->options_out_len < DHCP_OPTIONS_LEN);
  802a4e:	0f b7 48 24          	movzwl 0x24(%eax),%ecx
  802a52:	66 83 f9 43          	cmp    $0x43,%cx
  802a56:	77 1b                	ja     802a73 <dhcp_option_byte+0x2a>
  dhcp->msg_out->options[dhcp->options_out_len++] = value;
  802a58:	8b 58 20             	mov    0x20(%eax),%ebx
  802a5b:	8d 71 01             	lea    0x1(%ecx),%esi
  802a5e:	66 89 70 24          	mov    %si,0x24(%eax)
  802a62:	0f b7 c9             	movzwl %cx,%ecx
  802a65:	88 94 0b f0 00 00 00 	mov    %dl,0xf0(%ebx,%ecx,1)
}
  802a6c:	8d 65 f8             	lea    -0x8(%ebp),%esp
  802a6f:	5b                   	pop    %ebx
  802a70:	5e                   	pop    %esi
  802a71:	5d                   	pop    %ebp
  802a72:	c3                   	ret    
  LWIP_ASSERT("dhcp_option_byte: dhcp->options_out_len < DHCP_OPTIONS_LEN", dhcp->options_out_len < DHCP_OPTIONS_LEN);
  802a73:	83 ec 04             	sub    $0x4,%esp
  802a76:	68 74 16 81 00       	push   $0x811674
  802a7b:	68 65 04 00 00       	push   $0x465
  802a80:	68 c2 19 81 00       	push   $0x8119c2
  802a85:	e8 ad be 00 00       	call   80e937 <_panic>

00802a8a <dhcp_option>:
{
  802a8a:	55                   	push   %ebp
  802a8b:	89 e5                	mov    %esp,%ebp
  802a8d:	57                   	push   %edi
  802a8e:	56                   	push   %esi
  802a8f:	53                   	push   %ebx
  802a90:	83 ec 0c             	sub    $0xc,%esp
  LWIP_ASSERT("dhcp_option: dhcp->options_out_len + 2 + option_len <= DHCP_OPTIONS_LEN", dhcp->options_out_len + 2U + option_len <= DHCP_OPTIONS_LEN);
  802a93:	0f b7 58 24          	movzwl 0x24(%eax),%ebx
  802a97:	0f b6 f9             	movzbl %cl,%edi
  802a9a:	0f b7 f3             	movzwl %bx,%esi
  802a9d:	8d 74 37 02          	lea    0x2(%edi,%esi,1),%esi
  802aa1:	83 fe 44             	cmp    $0x44,%esi
  802aa4:	77 34                	ja     802ada <dhcp_option+0x50>
  dhcp->msg_out->options[dhcp->options_out_len++] = option_type;
  802aa6:	8b 70 20             	mov    0x20(%eax),%esi
  802aa9:	8d 7b 01             	lea    0x1(%ebx),%edi
  802aac:	66 89 78 24          	mov    %di,0x24(%eax)
  802ab0:	0f b7 db             	movzwl %bx,%ebx
  802ab3:	88 94 1e f0 00 00 00 	mov    %dl,0xf0(%esi,%ebx,1)
  dhcp->msg_out->options[dhcp->options_out_len++] = option_len;
  802aba:	8b 58 20             	mov    0x20(%eax),%ebx
  802abd:	0f b7 50 24          	movzwl 0x24(%eax),%edx
  802ac1:	8d 72 01             	lea    0x1(%edx),%esi
  802ac4:	66 89 70 24          	mov    %si,0x24(%eax)
  802ac8:	0f b7 d2             	movzwl %dx,%edx
  802acb:	88 8c 13 f0 00 00 00 	mov    %cl,0xf0(%ebx,%edx,1)
}
  802ad2:	8d 65 f4             	lea    -0xc(%ebp),%esp
  802ad5:	5b                   	pop    %ebx
  802ad6:	5e                   	pop    %esi
  802ad7:	5f                   	pop    %edi
  802ad8:	5d                   	pop    %ebp
  802ad9:	c3                   	ret    
  LWIP_ASSERT("dhcp_option: dhcp->options_out_len + 2 + option_len <= DHCP_OPTIONS_LEN", dhcp->options_out_len + 2U + option_len <= DHCP_OPTIONS_LEN);
  802ada:	83 ec 04             	sub    $0x4,%esp
  802add:	68 b0 16 81 00       	push   $0x8116b0
  802ae2:	68 5a 04 00 00       	push   $0x45a
  802ae7:	68 c2 19 81 00       	push   $0x8119c2
  802aec:	e8 46 be 00 00       	call   80e937 <_panic>

00802af1 <dhcp_option_short>:
{
  802af1:	55                   	push   %ebp
  802af2:	89 e5                	mov    %esp,%ebp
  802af4:	56                   	push   %esi
  802af5:	53                   	push   %ebx
  LWIP_ASSERT("dhcp_option_short: dhcp->options_out_len + 2 <= DHCP_OPTIONS_LEN", dhcp->options_out_len + 2U <= DHCP_OPTIONS_LEN);
  802af6:	0f b7 48 24          	movzwl 0x24(%eax),%ecx
  802afa:	0f b7 d9             	movzwl %cx,%ebx
  802afd:	83 c3 02             	add    $0x2,%ebx
  802b00:	83 fb 44             	cmp    $0x44,%ebx
  802b03:	77 33                	ja     802b38 <dhcp_option_short+0x47>
  dhcp->msg_out->options[dhcp->options_out_len++] = (u8_t)((value & 0xff00U) >> 8);
  802b05:	8b 58 20             	mov    0x20(%eax),%ebx
  802b08:	8d 71 01             	lea    0x1(%ecx),%esi
  802b0b:	66 89 70 24          	mov    %si,0x24(%eax)
  802b0f:	0f b7 c9             	movzwl %cx,%ecx
  802b12:	88 b4 0b f0 00 00 00 	mov    %dh,0xf0(%ebx,%ecx,1)
  dhcp->msg_out->options[dhcp->options_out_len++] = (u8_t) (value & 0x00ffU);
  802b19:	8b 58 20             	mov    0x20(%eax),%ebx
  802b1c:	0f b7 48 24          	movzwl 0x24(%eax),%ecx
  802b20:	8d 71 01             	lea    0x1(%ecx),%esi
  802b23:	66 89 70 24          	mov    %si,0x24(%eax)
  802b27:	0f b7 c9             	movzwl %cx,%ecx
  802b2a:	88 94 0b f0 00 00 00 	mov    %dl,0xf0(%ebx,%ecx,1)
}
  802b31:	8d 65 f8             	lea    -0x8(%ebp),%esp
  802b34:	5b                   	pop    %ebx
  802b35:	5e                   	pop    %esi
  802b36:	5d                   	pop    %ebp
  802b37:	c3                   	ret    
  LWIP_ASSERT("dhcp_option_short: dhcp->options_out_len + 2 <= DHCP_OPTIONS_LEN", dhcp->options_out_len + 2U <= DHCP_OPTIONS_LEN);
  802b38:	83 ec 04             	sub    $0x4,%esp
  802b3b:	68 f8 16 81 00       	push   $0x8116f8
  802b40:	68 6c 04 00 00       	push   $0x46c
  802b45:	68 c2 19 81 00       	push   $0x8119c2
  802b4a:	e8 e8 bd 00 00       	call   80e937 <_panic>

00802b4f <dhcp_option_trailer>:
{
  802b4f:	55                   	push   %ebp
  802b50:	89 e5                	mov    %esp,%ebp
  802b52:	53                   	push   %ebx
  802b53:	83 ec 04             	sub    $0x4,%esp
  LWIP_ERROR("dhcp_option_trailer: dhcp != NULL", (dhcp != NULL), return;);
  802b56:	85 c0                	test   %eax,%eax
  802b58:	74 25                	je     802b7f <dhcp_option_trailer+0x30>
  LWIP_ASSERT("dhcp_option_trailer: dhcp->msg_out != NULL\n", dhcp->msg_out != NULL);
  802b5a:	8b 48 20             	mov    0x20(%eax),%ecx
  802b5d:	85 c9                	test   %ecx,%ecx
  802b5f:	74 35                	je     802b96 <dhcp_option_trailer+0x47>
  LWIP_ASSERT("dhcp_option_trailer: dhcp->options_out_len < DHCP_OPTIONS_LEN\n", dhcp->options_out_len < DHCP_OPTIONS_LEN);
  802b61:	0f b7 50 24          	movzwl 0x24(%eax),%edx
  802b65:	66 83 fa 43          	cmp    $0x43,%dx
  802b69:	77 42                	ja     802bad <dhcp_option_trailer+0x5e>
  dhcp->msg_out->options[dhcp->options_out_len++] = DHCP_OPTION_END;
  802b6b:	8d 5a 01             	lea    0x1(%edx),%ebx
  802b6e:	66 89 58 24          	mov    %bx,0x24(%eax)
  802b72:	0f b7 d2             	movzwl %dx,%edx
  802b75:	c6 84 11 f0 00 00 00 	movb   $0xff,0xf0(%ecx,%edx,1)
  802b7c:	ff 
  while ((dhcp->options_out_len < DHCP_MIN_OPTIONS_LEN) || (dhcp->options_out_len & 3)) {
  802b7d:	eb 5a                	jmp    802bd9 <dhcp_option_trailer+0x8a>
  LWIP_ERROR("dhcp_option_trailer: dhcp != NULL", (dhcp != NULL), return;);
  802b7f:	83 ec 04             	sub    $0x4,%esp
  802b82:	68 3c 17 81 00       	push   $0x81173c
  802b87:	68 80 05 00 00       	push   $0x580
  802b8c:	68 c2 19 81 00       	push   $0x8119c2
  802b91:	e8 a1 bd 00 00       	call   80e937 <_panic>
  LWIP_ASSERT("dhcp_option_trailer: dhcp->msg_out != NULL\n", dhcp->msg_out != NULL);
  802b96:	83 ec 04             	sub    $0x4,%esp
  802b99:	68 60 17 81 00       	push   $0x811760
  802b9e:	68 81 05 00 00       	push   $0x581
  802ba3:	68 c2 19 81 00       	push   $0x8119c2
  802ba8:	e8 8a bd 00 00       	call   80e937 <_panic>
  LWIP_ASSERT("dhcp_option_trailer: dhcp->options_out_len < DHCP_OPTIONS_LEN\n", dhcp->options_out_len < DHCP_OPTIONS_LEN);
  802bad:	83 ec 04             	sub    $0x4,%esp
  802bb0:	68 8c 17 81 00       	push   $0x81178c
  802bb5:	68 82 05 00 00       	push   $0x582
  802bba:	68 c2 19 81 00       	push   $0x8119c2
  802bbf:	e8 73 bd 00 00       	call   80e937 <_panic>
    dhcp->msg_out->options[dhcp->options_out_len++] = 0;
  802bc4:	8b 48 20             	mov    0x20(%eax),%ecx
  802bc7:	8d 5a 01             	lea    0x1(%edx),%ebx
  802bca:	66 89 58 24          	mov    %bx,0x24(%eax)
  802bce:	0f b7 d2             	movzwl %dx,%edx
  802bd1:	c6 84 11 f0 00 00 00 	movb   $0x0,0xf0(%ecx,%edx,1)
  802bd8:	00 
  while ((dhcp->options_out_len < DHCP_MIN_OPTIONS_LEN) || (dhcp->options_out_len & 3)) {
  802bd9:	0f b7 50 24          	movzwl 0x24(%eax),%edx
  802bdd:	66 83 fa 43          	cmp    $0x43,%dx
  802be1:	76 e1                	jbe    802bc4 <dhcp_option_trailer+0x75>
  802be3:	f6 c2 03             	test   $0x3,%dl
  802be6:	74 17                	je     802bff <dhcp_option_trailer+0xb0>
    LWIP_ASSERT("dhcp_option_trailer: dhcp->options_out_len < DHCP_OPTIONS_LEN\n", dhcp->options_out_len < DHCP_OPTIONS_LEN);
  802be8:	83 ec 04             	sub    $0x4,%esp
  802beb:	68 8c 17 81 00       	push   $0x81178c
  802bf0:	68 87 05 00 00       	push   $0x587
  802bf5:	68 c2 19 81 00       	push   $0x8119c2
  802bfa:	e8 38 bd 00 00       	call   80e937 <_panic>
}
  802bff:	8b 5d fc             	mov    -0x4(%ebp),%ebx
  802c02:	c9                   	leave  
  802c03:	c3                   	ret    

00802c04 <dhcp_option_long>:
{
  802c04:	55                   	push   %ebp
  802c05:	89 e5                	mov    %esp,%ebp
  802c07:	56                   	push   %esi
  802c08:	53                   	push   %ebx
  LWIP_ASSERT("dhcp_option_long: dhcp->options_out_len + 4 <= DHCP_OPTIONS_LEN", dhcp->options_out_len + 4U <= DHCP_OPTIONS_LEN);
  802c09:	0f b7 48 24          	movzwl 0x24(%eax),%ecx
  802c0d:	0f b7 d9             	movzwl %cx,%ebx
  802c10:	83 c3 04             	add    $0x4,%ebx
  802c13:	83 fb 44             	cmp    $0x44,%ebx
  802c16:	77 6d                	ja     802c85 <dhcp_option_long+0x81>
  dhcp->msg_out->options[dhcp->options_out_len++] = (u8_t)((value & 0xff000000UL) >> 24);
  802c18:	8d 71 01             	lea    0x1(%ecx),%esi
  802c1b:	66 89 70 24          	mov    %si,0x24(%eax)
  802c1f:	0f b7 c9             	movzwl %cx,%ecx
  802c22:	89 d3                	mov    %edx,%ebx
  802c24:	c1 eb 18             	shr    $0x18,%ebx
  802c27:	8b 70 20             	mov    0x20(%eax),%esi
  802c2a:	88 9c 0e f0 00 00 00 	mov    %bl,0xf0(%esi,%ecx,1)
  dhcp->msg_out->options[dhcp->options_out_len++] = (u8_t)((value & 0x00ff0000UL) >> 16);
  802c31:	0f b7 48 24          	movzwl 0x24(%eax),%ecx
  802c35:	8d 71 01             	lea    0x1(%ecx),%esi
  802c38:	66 89 70 24          	mov    %si,0x24(%eax)
  802c3c:	0f b7 c9             	movzwl %cx,%ecx
  802c3f:	89 d3                	mov    %edx,%ebx
  802c41:	c1 eb 10             	shr    $0x10,%ebx
  802c44:	8b 70 20             	mov    0x20(%eax),%esi
  802c47:	88 9c 0e f0 00 00 00 	mov    %bl,0xf0(%esi,%ecx,1)
  dhcp->msg_out->options[dhcp->options_out_len++] = (u8_t)((value & 0x0000ff00UL) >> 8);
  802c4e:	8b 58 20             	mov    0x20(%eax),%ebx
  802c51:	0f b7 48 24          	movzwl 0x24(%eax),%ecx
  802c55:	8d 71 01             	lea    0x1(%ecx),%esi
  802c58:	66 89 70 24          	mov    %si,0x24(%eax)
  802c5c:	0f b7 c9             	movzwl %cx,%ecx
  802c5f:	88 b4 0b f0 00 00 00 	mov    %dh,0xf0(%ebx,%ecx,1)
  dhcp->msg_out->options[dhcp->options_out_len++] = (u8_t)((value & 0x000000ffUL));
  802c66:	8b 58 20             	mov    0x20(%eax),%ebx
  802c69:	0f b7 48 24          	movzwl 0x24(%eax),%ecx
  802c6d:	8d 71 01             	lea    0x1(%ecx),%esi
  802c70:	66 89 70 24          	mov    %si,0x24(%eax)
  802c74:	0f b7 c9             	movzwl %cx,%ecx
  802c77:	88 94 0b f0 00 00 00 	mov    %dl,0xf0(%ebx,%ecx,1)
}
  802c7e:	8d 65 f8             	lea    -0x8(%ebp),%esp
  802c81:	5b                   	pop    %ebx
  802c82:	5e                   	pop    %esi
  802c83:	5d                   	pop    %ebp
  802c84:	c3                   	ret    
  LWIP_ASSERT("dhcp_option_long: dhcp->options_out_len + 4 <= DHCP_OPTIONS_LEN", dhcp->options_out_len + 4U <= DHCP_OPTIONS_LEN);
  802c85:	83 ec 04             	sub    $0x4,%esp
  802c88:	68 cc 17 81 00       	push   $0x8117cc
  802c8d:	68 74 04 00 00       	push   $0x474
  802c92:	68 c2 19 81 00       	push   $0x8119c2
  802c97:	e8 9b bc 00 00       	call   80e937 <_panic>

00802c9c <dhcp_create_request>:
{
  802c9c:	55                   	push   %ebp
  802c9d:	89 e5                	mov    %esp,%ebp
  802c9f:	57                   	push   %edi
  802ca0:	56                   	push   %esi
  802ca1:	53                   	push   %ebx
  802ca2:	83 ec 0c             	sub    $0xc,%esp
  LWIP_ERROR("dhcp_create_request: netif != NULL", (netif != NULL), return ERR_ARG;);
  802ca5:	85 c0                	test   %eax,%eax
  802ca7:	0f 84 d8 00 00 00    	je     802d85 <dhcp_create_request+0xe9>
  802cad:	89 c6                	mov    %eax,%esi
  dhcp = netif->dhcp;
  802caf:	8b 58 20             	mov    0x20(%eax),%ebx
  LWIP_ERROR("dhcp_create_request: dhcp != NULL", (dhcp != NULL), return ERR_VAL;);
  802cb2:	85 db                	test   %ebx,%ebx
  802cb4:	0f 84 e2 00 00 00    	je     802d9c <dhcp_create_request+0x100>
  LWIP_ASSERT("dhcp_create_request: dhcp->p_out == NULL", dhcp->p_out == NULL);
  802cba:	83 7b 1c 00          	cmpl   $0x0,0x1c(%ebx)
  802cbe:	0f 85 ef 00 00 00    	jne    802db3 <dhcp_create_request+0x117>
  LWIP_ASSERT("dhcp_create_request: dhcp->msg_out == NULL", dhcp->msg_out == NULL);
  802cc4:	83 7b 20 00          	cmpl   $0x0,0x20(%ebx)
  802cc8:	0f 85 fc 00 00 00    	jne    802dca <dhcp_create_request+0x12e>
  dhcp->p_out = pbuf_alloc(PBUF_TRANSPORT, sizeof(struct dhcp_msg), PBUF_RAM);
  802cce:	83 ec 04             	sub    $0x4,%esp
  802cd1:	6a 00                	push   $0x0
  802cd3:	68 34 01 00 00       	push   $0x134
  802cd8:	6a 00                	push   $0x0
  802cda:	e8 06 1e 00 00       	call   804ae5 <pbuf_alloc>
  802cdf:	89 43 1c             	mov    %eax,0x1c(%ebx)
  if (dhcp->p_out == NULL) {
  802ce2:	83 c4 10             	add    $0x10,%esp
  802ce5:	85 c0                	test   %eax,%eax
  802ce7:	0f 84 9b 01 00 00    	je     802e88 <dhcp_create_request+0x1ec>
  LWIP_ASSERT("dhcp_create_request: check that first pbuf can hold struct dhcp_msg",
  802ced:	66 81 78 0a 33 01    	cmpw   $0x133,0xa(%eax)
  802cf3:	0f 86 e8 00 00 00    	jbe    802de1 <dhcp_create_request+0x145>
  dhcp->xid = xid++;
  802cf9:	8b 15 04 40 81 00    	mov    0x814004,%edx
  802cff:	8d 4a 01             	lea    0x1(%edx),%ecx
  802d02:	89 0d 04 40 81 00    	mov    %ecx,0x814004
  802d08:	89 53 04             	mov    %edx,0x4(%ebx)
  dhcp->msg_out = (struct dhcp_msg *)dhcp->p_out->payload;
  802d0b:	8b 40 04             	mov    0x4(%eax),%eax
  802d0e:	89 43 20             	mov    %eax,0x20(%ebx)
  dhcp->msg_out->op = DHCP_BOOTREQUEST;
  802d11:	c6 00 01             	movb   $0x1,(%eax)
  dhcp->msg_out->htype = DHCP_HTYPE_ETH;
  802d14:	8b 43 20             	mov    0x20(%ebx),%eax
  802d17:	c6 40 01 01          	movb   $0x1,0x1(%eax)
  dhcp->msg_out->hlen = DHCP_HLEN_ETH;
  802d1b:	8b 43 20             	mov    0x20(%ebx),%eax
  802d1e:	c6 40 02 06          	movb   $0x6,0x2(%eax)
  dhcp->msg_out->hops = 0;
  802d22:	8b 43 20             	mov    0x20(%ebx),%eax
  802d25:	c6 40 03 00          	movb   $0x0,0x3(%eax)
  dhcp->msg_out->xid = htonl(dhcp->xid);
  802d29:	8b 7b 20             	mov    0x20(%ebx),%edi
  802d2c:	83 ec 0c             	sub    $0xc,%esp
  802d2f:	ff 73 04             	pushl  0x4(%ebx)
  802d32:	e8 3e 4c 00 00       	call   807975 <htonl>
  802d37:	89 47 04             	mov    %eax,0x4(%edi)
  dhcp->msg_out->secs = 0;
  802d3a:	8b 43 20             	mov    0x20(%ebx),%eax
  802d3d:	66 c7 40 08 00 00    	movw   $0x0,0x8(%eax)
  dhcp->msg_out->flags = 0;
  802d43:	8b 43 20             	mov    0x20(%ebx),%eax
  802d46:	66 c7 40 0a 00 00    	movw   $0x0,0xa(%eax)
  dhcp->msg_out->ciaddr.addr = netif->ip_addr.addr;
  802d4c:	8b 43 20             	mov    0x20(%ebx),%eax
  802d4f:	8b 56 04             	mov    0x4(%esi),%edx
  802d52:	89 50 0c             	mov    %edx,0xc(%eax)
  dhcp->msg_out->yiaddr.addr = 0;
  802d55:	8b 43 20             	mov    0x20(%ebx),%eax
  802d58:	c7 40 10 00 00 00 00 	movl   $0x0,0x10(%eax)
  dhcp->msg_out->siaddr.addr = 0;
  802d5f:	8b 43 20             	mov    0x20(%ebx),%eax
  802d62:	c7 40 14 00 00 00 00 	movl   $0x0,0x14(%eax)
  dhcp->msg_out->giaddr.addr = 0;
  802d69:	8b 43 20             	mov    0x20(%ebx),%eax
  802d6c:	c7 40 18 00 00 00 00 	movl   $0x0,0x18(%eax)
  802d73:	83 c4 10             	add    $0x10,%esp
  802d76:	b8 00 00 00 00       	mov    $0x0,%eax
    dhcp->msg_out->chaddr[i] = (i < netif->hwaddr_len) ? netif->hwaddr[i] : 0/* pad byte*/;
  802d7b:	bf 00 00 00 00       	mov    $0x0,%edi
  802d80:	e9 82 00 00 00       	jmp    802e07 <dhcp_create_request+0x16b>
  LWIP_ERROR("dhcp_create_request: netif != NULL", (netif != NULL), return ERR_ARG;);
  802d85:	83 ec 04             	sub    $0x4,%esp
  802d88:	68 0c 18 81 00       	push   $0x81180c
  802d8d:	68 2d 05 00 00       	push   $0x52d
  802d92:	68 c2 19 81 00       	push   $0x8119c2
  802d97:	e8 9b bb 00 00       	call   80e937 <_panic>
  LWIP_ERROR("dhcp_create_request: dhcp != NULL", (dhcp != NULL), return ERR_VAL;);
  802d9c:	83 ec 04             	sub    $0x4,%esp
  802d9f:	68 30 18 81 00       	push   $0x811830
  802da4:	68 2f 05 00 00       	push   $0x52f
  802da9:	68 c2 19 81 00       	push   $0x8119c2
  802dae:	e8 84 bb 00 00       	call   80e937 <_panic>
  LWIP_ASSERT("dhcp_create_request: dhcp->p_out == NULL", dhcp->p_out == NULL);
  802db3:	83 ec 04             	sub    $0x4,%esp
  802db6:	68 54 18 81 00       	push   $0x811854
  802dbb:	68 30 05 00 00       	push   $0x530
  802dc0:	68 c2 19 81 00       	push   $0x8119c2
  802dc5:	e8 6d bb 00 00       	call   80e937 <_panic>
  LWIP_ASSERT("dhcp_create_request: dhcp->msg_out == NULL", dhcp->msg_out == NULL);
  802dca:	83 ec 04             	sub    $0x4,%esp
  802dcd:	68 80 18 81 00       	push   $0x811880
  802dd2:	68 31 05 00 00       	push   $0x531
  802dd7:	68 c2 19 81 00       	push   $0x8119c2
  802ddc:	e8 56 bb 00 00       	call   80e937 <_panic>
  LWIP_ASSERT("dhcp_create_request: check that first pbuf can hold struct dhcp_msg",
  802de1:	83 ec 04             	sub    $0x4,%esp
  802de4:	68 ac 18 81 00       	push   $0x8118ac
  802de9:	68 37 05 00 00       	push   $0x537
  802dee:	68 c2 19 81 00       	push   $0x8119c2
  802df3:	e8 3f bb 00 00       	call   80e937 <_panic>
    dhcp->msg_out->chaddr[i] = (i < netif->hwaddr_len) ? netif->hwaddr[i] : 0/* pad byte*/;
  802df8:	8b 4b 20             	mov    0x20(%ebx),%ecx
  802dfb:	88 54 01 1c          	mov    %dl,0x1c(%ecx,%eax,1)
  802dff:	83 c0 01             	add    $0x1,%eax
  for (i = 0; i < DHCP_CHADDR_LEN; i++) {
  802e02:	83 f8 10             	cmp    $0x10,%eax
  802e05:	74 12                	je     802e19 <dhcp_create_request+0x17d>
    dhcp->msg_out->chaddr[i] = (i < netif->hwaddr_len) ? netif->hwaddr[i] : 0/* pad byte*/;
  802e07:	0f b6 4e 24          	movzbl 0x24(%esi),%ecx
  802e0b:	89 fa                	mov    %edi,%edx
  802e0d:	66 39 c1             	cmp    %ax,%cx
  802e10:	76 e6                	jbe    802df8 <dhcp_create_request+0x15c>
  802e12:	0f b6 54 06 25       	movzbl 0x25(%esi,%eax,1),%edx
  802e17:	eb df                	jmp    802df8 <dhcp_create_request+0x15c>
  802e19:	b8 00 00 00 00       	mov    $0x0,%eax
    dhcp->msg_out->sname[i] = 0;
  802e1e:	8b 53 20             	mov    0x20(%ebx),%edx
  802e21:	c6 44 02 2c 00       	movb   $0x0,0x2c(%edx,%eax,1)
  802e26:	83 c0 01             	add    $0x1,%eax
  for (i = 0; i < DHCP_SNAME_LEN; i++) {
  802e29:	83 f8 40             	cmp    $0x40,%eax
  802e2c:	75 f0                	jne    802e1e <dhcp_create_request+0x182>
  802e2e:	b8 00 00 00 00       	mov    $0x0,%eax
    dhcp->msg_out->file[i] = 0;
  802e33:	8b 53 20             	mov    0x20(%ebx),%edx
  802e36:	c6 44 02 6c 00       	movb   $0x0,0x6c(%edx,%eax,1)
  802e3b:	83 c0 01             	add    $0x1,%eax
  for (i = 0; i < DHCP_FILE_LEN; i++) {
  802e3e:	3d 80 00 00 00       	cmp    $0x80,%eax
  802e43:	75 ee                	jne    802e33 <dhcp_create_request+0x197>
  dhcp->msg_out->cookie = htonl(0x63825363UL);
  802e45:	8b 73 20             	mov    0x20(%ebx),%esi
  802e48:	83 ec 0c             	sub    $0xc,%esp
  802e4b:	68 63 53 82 63       	push   $0x63825363
  802e50:	e8 20 4b 00 00       	call   807975 <htonl>
  802e55:	89 86 ec 00 00 00    	mov    %eax,0xec(%esi)
  dhcp->options_out_len = 0;
  802e5b:	66 c7 43 24 00 00    	movw   $0x0,0x24(%ebx)
  802e61:	83 c4 10             	add    $0x10,%esp
  802e64:	b8 00 00 00 00       	mov    $0x0,%eax
    dhcp->msg_out->options[i] = (u8_t)i; /* for debugging only, no matter if truncated */
  802e69:	8b 53 20             	mov    0x20(%ebx),%edx
  802e6c:	88 84 02 f0 00 00 00 	mov    %al,0xf0(%edx,%eax,1)
  802e73:	83 c0 01             	add    $0x1,%eax
  for (i = 0; i < DHCP_OPTIONS_LEN; i++) {
  802e76:	83 f8 44             	cmp    $0x44,%eax
  802e79:	75 ee                	jne    802e69 <dhcp_create_request+0x1cd>
  return ERR_OK;
  802e7b:	b8 00 00 00 00       	mov    $0x0,%eax
}
  802e80:	8d 65 f4             	lea    -0xc(%ebp),%esp
  802e83:	5b                   	pop    %ebx
  802e84:	5e                   	pop    %esi
  802e85:	5f                   	pop    %edi
  802e86:	5d                   	pop    %ebp
  802e87:	c3                   	ret    
    return ERR_MEM;
  802e88:	b8 ff ff ff ff       	mov    $0xffffffff,%eax
  802e8d:	eb f1                	jmp    802e80 <dhcp_create_request+0x1e4>

00802e8f <dhcp_delete_request>:
{
  802e8f:	55                   	push   %ebp
  802e90:	89 e5                	mov    %esp,%ebp
  802e92:	53                   	push   %ebx
  802e93:	83 ec 04             	sub    $0x4,%esp
  LWIP_ERROR("dhcp_delete_request: netif != NULL", (netif != NULL), return;);
  802e96:	85 c0                	test   %eax,%eax
  802e98:	74 33                	je     802ecd <dhcp_delete_request+0x3e>
  dhcp = netif->dhcp;
  802e9a:	8b 58 20             	mov    0x20(%eax),%ebx
  LWIP_ERROR("dhcp_delete_request: dhcp != NULL", (dhcp != NULL), return;);
  802e9d:	85 db                	test   %ebx,%ebx
  802e9f:	74 43                	je     802ee4 <dhcp_delete_request+0x55>
  LWIP_ASSERT("dhcp_delete_request: dhcp->p_out != NULL", dhcp->p_out != NULL);
  802ea1:	8b 43 1c             	mov    0x1c(%ebx),%eax
  802ea4:	85 c0                	test   %eax,%eax
  802ea6:	74 53                	je     802efb <dhcp_delete_request+0x6c>
  LWIP_ASSERT("dhcp_delete_request: dhcp->msg_out != NULL", dhcp->msg_out != NULL);
  802ea8:	83 7b 20 00          	cmpl   $0x0,0x20(%ebx)
  802eac:	74 64                	je     802f12 <dhcp_delete_request+0x83>
    pbuf_free(dhcp->p_out);
  802eae:	83 ec 0c             	sub    $0xc,%esp
  802eb1:	50                   	push   %eax
  802eb2:	e8 64 1b 00 00       	call   804a1b <pbuf_free>
  dhcp->p_out = NULL;
  802eb7:	c7 43 1c 00 00 00 00 	movl   $0x0,0x1c(%ebx)
  dhcp->msg_out = NULL;
  802ebe:	c7 43 20 00 00 00 00 	movl   $0x0,0x20(%ebx)
  802ec5:	83 c4 10             	add    $0x10,%esp
}
  802ec8:	8b 5d fc             	mov    -0x4(%ebp),%ebx
  802ecb:	c9                   	leave  
  802ecc:	c3                   	ret    
  LWIP_ERROR("dhcp_delete_request: netif != NULL", (netif != NULL), return;);
  802ecd:	83 ec 04             	sub    $0x4,%esp
  802ed0:	68 f0 18 81 00       	push   $0x8118f0
  802ed5:	68 69 05 00 00       	push   $0x569
  802eda:	68 c2 19 81 00       	push   $0x8119c2
  802edf:	e8 53 ba 00 00       	call   80e937 <_panic>
  LWIP_ERROR("dhcp_delete_request: dhcp != NULL", (dhcp != NULL), return;);
  802ee4:	83 ec 04             	sub    $0x4,%esp
  802ee7:	68 14 19 81 00       	push   $0x811914
  802eec:	68 6b 05 00 00       	push   $0x56b
  802ef1:	68 c2 19 81 00       	push   $0x8119c2
  802ef6:	e8 3c ba 00 00       	call   80e937 <_panic>
  LWIP_ASSERT("dhcp_delete_request: dhcp->p_out != NULL", dhcp->p_out != NULL);
  802efb:	83 ec 04             	sub    $0x4,%esp
  802efe:	68 38 19 81 00       	push   $0x811938
  802f03:	68 6c 05 00 00       	push   $0x56c
  802f08:	68 c2 19 81 00       	push   $0x8119c2
  802f0d:	e8 25 ba 00 00       	call   80e937 <_panic>
  LWIP_ASSERT("dhcp_delete_request: dhcp->msg_out != NULL", dhcp->msg_out != NULL);
  802f12:	83 ec 04             	sub    $0x4,%esp
  802f15:	68 64 19 81 00       	push   $0x811964
  802f1a:	68 6d 05 00 00       	push   $0x56d
  802f1f:	68 c2 19 81 00       	push   $0x8119c2
  802f24:	e8 0e ba 00 00       	call   80e937 <_panic>

00802f29 <dhcp_rebind>:
{
  802f29:	55                   	push   %ebp
  802f2a:	89 e5                	mov    %esp,%ebp
  802f2c:	57                   	push   %edi
  802f2d:	56                   	push   %esi
  802f2e:	53                   	push   %ebx
  802f2f:	83 ec 0c             	sub    $0xc,%esp
  802f32:	89 c7                	mov    %eax,%edi
  struct dhcp *dhcp = netif->dhcp;
  802f34:	8b 58 20             	mov    0x20(%eax),%ebx
  dhcp_set_state(dhcp, DHCP_REBINDING);
  802f37:	ba 04 00 00 00       	mov    $0x4,%edx
  802f3c:	89 d8                	mov    %ebx,%eax
  802f3e:	e8 cc f9 ff ff       	call   80290f <dhcp_set_state>
  result = dhcp_create_request(netif);
  802f43:	89 f8                	mov    %edi,%eax
  802f45:	e8 52 fd ff ff       	call   802c9c <dhcp_create_request>
  802f4a:	89 c6                	mov    %eax,%esi
  if (result == ERR_OK) {
  802f4c:	84 c0                	test   %al,%al
  802f4e:	74 3e                	je     802f8e <dhcp_rebind+0x65>
  dhcp->tries++;
  802f50:	0f b6 43 01          	movzbl 0x1(%ebx),%eax
  802f54:	83 c0 01             	add    $0x1,%eax
  802f57:	88 43 01             	mov    %al,0x1(%ebx)
  msecs = dhcp->tries < 10 ? dhcp->tries * 1000 : 10 * 1000;
  802f5a:	ba 10 27 00 00       	mov    $0x2710,%edx
  802f5f:	3c 09                	cmp    $0x9,%al
  802f61:	77 08                	ja     802f6b <dhcp_rebind+0x42>
  802f63:	0f b6 d0             	movzbl %al,%edx
  802f66:	66 69 d2 e8 03       	imul   $0x3e8,%dx,%dx
  dhcp->request_timeout = (msecs + DHCP_FINE_TIMER_MSECS - 1) / DHCP_FINE_TIMER_MSECS;
  802f6b:	0f b7 d2             	movzwl %dx,%edx
  802f6e:	81 c2 f3 01 00 00    	add    $0x1f3,%edx
  802f74:	b9 d3 4d 62 10       	mov    $0x10624dd3,%ecx
  802f79:	89 d0                	mov    %edx,%eax
  802f7b:	f7 e9                	imul   %ecx
  802f7d:	c1 fa 05             	sar    $0x5,%edx
  802f80:	66 89 53 26          	mov    %dx,0x26(%ebx)
}
  802f84:	89 f0                	mov    %esi,%eax
  802f86:	8d 65 f4             	lea    -0xc(%ebp),%esp
  802f89:	5b                   	pop    %ebx
  802f8a:	5e                   	pop    %esi
  802f8b:	5f                   	pop    %edi
  802f8c:	5d                   	pop    %ebp
  802f8d:	c3                   	ret    
    dhcp_option(dhcp, DHCP_OPTION_MESSAGE_TYPE, DHCP_OPTION_MESSAGE_TYPE_LEN);
  802f8e:	b9 01 00 00 00       	mov    $0x1,%ecx
  802f93:	ba 35 00 00 00       	mov    $0x35,%edx
  802f98:	89 d8                	mov    %ebx,%eax
  802f9a:	e8 eb fa ff ff       	call   802a8a <dhcp_option>
    dhcp_option_byte(dhcp, DHCP_REQUEST);
  802f9f:	ba 03 00 00 00       	mov    $0x3,%edx
  802fa4:	89 d8                	mov    %ebx,%eax
  802fa6:	e8 9e fa ff ff       	call   802a49 <dhcp_option_byte>
    dhcp_option(dhcp, DHCP_OPTION_MAX_MSG_SIZE, DHCP_OPTION_MAX_MSG_SIZE_LEN);
  802fab:	b9 02 00 00 00       	mov    $0x2,%ecx
  802fb0:	ba 39 00 00 00       	mov    $0x39,%edx
  802fb5:	89 d8                	mov    %ebx,%eax
  802fb7:	e8 ce fa ff ff       	call   802a8a <dhcp_option>
    dhcp_option_short(dhcp, 576);
  802fbc:	ba 40 02 00 00       	mov    $0x240,%edx
  802fc1:	89 d8                	mov    %ebx,%eax
  802fc3:	e8 29 fb ff ff       	call   802af1 <dhcp_option_short>
    dhcp_option_trailer(dhcp);
  802fc8:	89 d8                	mov    %ebx,%eax
  802fca:	e8 80 fb ff ff       	call   802b4f <dhcp_option_trailer>
    pbuf_realloc(dhcp->p_out, sizeof(struct dhcp_msg) - DHCP_OPTIONS_LEN + dhcp->options_out_len);
  802fcf:	83 ec 08             	sub    $0x8,%esp
  802fd2:	0f b7 43 24          	movzwl 0x24(%ebx),%eax
  802fd6:	66 05 f0 00          	add    $0xf0,%ax
  802fda:	0f b7 c0             	movzwl %ax,%eax
  802fdd:	50                   	push   %eax
  802fde:	ff 73 1c             	pushl  0x1c(%ebx)
  802fe1:	e8 5e 1d 00 00       	call   804d44 <pbuf_realloc>
    udp_connect(dhcp->pcb, IP_ADDR_ANY, DHCP_SERVER_PORT);
  802fe6:	83 c4 0c             	add    $0xc,%esp
  802fe9:	6a 43                	push   $0x43
  802feb:	68 68 22 81 00       	push   $0x812268
  802ff0:	ff 73 08             	pushl  0x8(%ebx)
  802ff3:	e8 c0 61 00 00       	call   8091b8 <udp_connect>
    udp_sendto_if(dhcp->pcb, dhcp->p_out, IP_ADDR_BROADCAST, DHCP_SERVER_PORT, netif);
  802ff8:	89 3c 24             	mov    %edi,(%esp)
  802ffb:	6a 43                	push   $0x43
  802ffd:	68 64 22 81 00       	push   $0x812264
  803002:	ff 73 1c             	pushl  0x1c(%ebx)
  803005:	ff 73 08             	pushl  0x8(%ebx)
  803008:	e8 aa 5f 00 00       	call   808fb7 <udp_sendto_if>
    dhcp_delete_request(netif);
  80300d:	83 c4 20             	add    $0x20,%esp
  803010:	89 f8                	mov    %edi,%eax
  803012:	e8 78 fe ff ff       	call   802e8f <dhcp_delete_request>
  803017:	e9 34 ff ff ff       	jmp    802f50 <dhcp_rebind+0x27>

0080301c <dhcp_discover>:
{
  80301c:	55                   	push   %ebp
  80301d:	89 e5                	mov    %esp,%ebp
  80301f:	57                   	push   %edi
  803020:	56                   	push   %esi
  803021:	53                   	push   %ebx
  803022:	83 ec 0c             	sub    $0xc,%esp
  803025:	89 c7                	mov    %eax,%edi
  struct dhcp *dhcp = netif->dhcp;
  803027:	8b 58 20             	mov    0x20(%eax),%ebx
  ip_addr_set(&dhcp->offered_ip_addr, IP_ADDR_ANY);
  80302a:	a1 68 22 81 00       	mov    0x812268,%eax
  80302f:	89 43 30             	mov    %eax,0x30(%ebx)
  result = dhcp_create_request(netif);
  803032:	89 f8                	mov    %edi,%eax
  803034:	e8 63 fc ff ff       	call   802c9c <dhcp_create_request>
  803039:	89 c6                	mov    %eax,%esi
  if (result == ERR_OK) {
  80303b:	84 c0                	test   %al,%al
  80303d:	74 41                	je     803080 <dhcp_discover+0x64>
  dhcp->tries++;
  80303f:	0f b6 43 01          	movzbl 0x1(%ebx),%eax
  803043:	83 c0 01             	add    $0x1,%eax
